Certificate:
    Data:
        Version: 1 (0x0)
        Serial Number:
            db:0b:13:04:c9:f7:0a:04
        Signature Algorithm: sha1WithRSAEncryption
        Issuer: C=UK, ST=England, L=Winchester, O=IBM, CN=Ian Craggs/emailAddress=icraggs@uk.ibm.com
        Validity
            Not Before: Aug  8 22:08:37 2013 GMT
            Not After : Jul  5 22:08:37 4751 GMT
        Subject: C=UK, ST=England, L=Winchester, O=IBM, CN=Ian Craggs/emailAddress=icraggs@uk.ibm.com
        Subject Public Key Info:
            Public Key Algorithm: rsaEncryption
                Public-Key: (2048 bit)
                Modulus:
                    00:e4:b9:35:7e:f8:89:6f:2b:f1:14:d1:28:f5:ed:
                    e0:ce:e5:8e:e3:0b:b3:eb:94:89:8a:e7:ce:26:f9:
                    d3:c4:92:15:bc:27:fe:10:5f:2c:e2:c1:02:60:7e:
                    b1:e5:5e:8f:ad:11:e9:6c:de:d6:b4:3f:7c:b3:60:
                    74:f3:9c:64:f5:d7:a1:1c:24:e7:7d:77:21:02:42:
                    94:ed:f3:33:58:c9:e0:17:60:4f:64:82:e3:18:0c:
                    b6:2d:3e:d0:a2:06:e1:4a:92:7f:84:92:e6:bb:6b:
                    06:bc:9d:b4:7a:ec:07:40:eb:32:37:65:57:87:1e:
                    7e:f1:ca:1d:72:28:98:c9:ec:e6:74:45:97:7a:bd:
                    a7:b5:69:2a:f4:a9:de:64:d3:fd:f0:d2:78:1d:a3:
                    7b:4f:4d:95:5b:ee:5d:8f:15:ed:e1:a8:94:1c:02:
                    e0:22:d7:4d:42:4f:2a:b1:dd:e7:2c:67:fa:63:88:
                    17:84:1a:ac:0c:e0:78:7d:6b:4f:cb:26:07:e9:a3:
                    d8:3a:44:1a:97:e0:25:96:01:33:29:ed:db:f1:19:
                    01:9d:bd:ec:8c:6c:8c:3a:78:ac:2f:66:69:0a:18:
                    ee:a8:35:e5:ac:52:bd:4d:37:60:71:ca:c1:26:bd:
                    0a:7e:db:d3:b0:d5:6d:9e:a1:cd:f4:83:4b:a2:77:
                    41:7f
                Exponent: 65537 (0x10001)
    Signature Algorithm: sha1WithRSAEncryption
        6d:af:29:f3:49:4a:b1:d4:09:4b:76:f5:86:99:1f:79:a0:e4:
        af:0f:3b:c8:c1:30:ca:d3:98:1d:3e:1f:2a:84:b6:90:a8:06:
        1d:2b:33:2a:1a:05:1c:2d:e7:fc:aa:34:73:ee:9c:fd:2e:21:
        9c:c1:42:be:86:de:42:92:47:52:69:ab:2a:cc:b2:26:3d:65:
        8d:60:22:e0:e5:4c:03:33:cf:36:56:73:c0:02:62:1b:31:a1:
        78:54:c4:f7:1e:19:f0:e3:a6:86:e6:49:57:90:e8:74:de:66:
        68:b5:63:38:a3:4e:66:b1:c4:0a:4c:a0:df:3c:d7:b0:75:3e:
        59:e2:5e:51:76:13:92:09:ec:0e:05:09:2b:d8:bb:b6:ec:83:
        aa:b0:37:d1:4b:bb:0e:6f:ee:c9:18:06:e2:09:a1:b2:7d:ad:
        5e:aa:2c:de:c1:c1:a6:4a:5b:d7:ab:29:78:09:14:c8:39:65:
        14:52:7c:73:09:a6:43:cb:5d:31:ae:9c:5c:c8:39:30:9e:bc:
        2c:dd:2d:e9:70:35:00:4c:98:42:ab:26:0c:5a:02:4b:92:c8:
        c7:d2:23:c1:16:6f:b3:e0:78:8f:db:7b:35:89:b0:b8:4b:40:
        a9:82:3a:f4:29:4a:82:60:25:e1:9e:42:96:59:f8:58:96:37:
        5f:d0:30:6d
-----BEGIN CERTIFICATE-----
MIIDcjCCAloCCQDbCxMEyfcKBDANBgkqhkiG9w0BAQUFADB6MQswCQYDVQQGEwJV
SzEQMA4GA1UECAwHRW5nbGFuZDETMBEGA1UEBwwKV2luY2hlc3RlcjEMMAoGA1UE
CgwDSUJNMRMwEQYDVQQDDApJYW4gQ3JhZ2dzMSEwHwYJKoZIhvcNAQkBFhJpY3Jh
Z2dzQHVrLmlibS5jb20wIBcNMTMwODA4MjIwODM3WhgPNDc1MTA3MDUyMjA4Mzda
MHoxCzAJBgNVBAYTAlVLMRAwDgYDVQQIDAdFbmdsYW5kMRMwEQYDVQQHDApXaW5j
aGVzdGVyMQwwCgYDVQQKDANJQk0xEzARBgNVBAMMCklhbiBDcmFnZ3MxITAfBgkq
hkiG9w0BCQEWEmljcmFnZ3NAdWsuaWJtLmNvbTCCASIwDQYJKoZIhvcNAQEBBQAD
ggEPADCCAQoCggEBAOS5NX74iW8r8RTRKPXt4M7ljuMLs+uUiYrnzib508SSFbwn
/hBfLOLBAmB+seVej60R6Wze1rQ/fLNgdPOcZPXXoRwk5313IQJClO3zM1jJ4Bdg
T2SC4xgMti0+0KIG4UqSf4SS5rtrBrydtHrsB0DrMjdlV4cefvHKHXIomMns5nRF
l3q9p7VpKvSp3mTT/fDSeB2je09NlVvuXY8V7eGolBwC4CLXTUJPKrHd5yxn+mOI
F4QarAzgeH1rT8smB+mj2DpEGpfgJZYBMynt2/EZAZ297IxsjDp4rC9maQoY7qg1
5axSvU03YHHKwSa9Cn7b07DVbZ6hzfSDS6J3QX8CAwEAATANBgkqhkiG9w0BAQUF
AAOCAQEAba8p80lKsdQJS3b1hpkfeaDkrw87yMEwytOYHT4fKoS2kKgGHSszKhoF
HC3n/Ko0c+6c/S4hnMFCvobeQpJHUmmrKsyyJj1ljWAi4OVMAzPPNlZzwAJiGzGh
eFTE9x4Z8OOmhuZJV5DodN5maLVjOKNOZrHECkyg3zzXsHU+WeJeUXYTkgnsDgUJ
K9i7tuyDqrA30Uu7Dm/uyRgG4gmhsn2tXqos3sHBpkpb16speAkUyDllFFJ8cwmm
Q8tdMa6cXMg5MJ68LN0t6XA1AEyYQqsmDFoCS5LIx9IjwRZvs+B4j9t7NYmwuEtA
qYI69ClKgmAl4Z5Clln4WJY3X9AwbQ==
-----END CERTIFICATE-----
Certificate:
    Data:
        Version: 3 (0x2)
        Serial Number:
            bf:d0:e6:9a:27:0f:16:9d
        Signature Algorithm: sha1WithRSAEncryption
        Issuer: C=CA, ST=Ontario, L=Ottawa, O=Eclipse Foundation, Inc, OU=Paho, CN=Paho/emailAddress=icraggs@modelbasedtesting.co.uk
        Validity
            Not Before: Aug  9 12:45:56 2013 GMT
            Not After : Jul  6 12:45:56 4751 GMT
        Subject: C=CA, ST=Ontario, L=Ottawa, O=Eclipse Foundation, Inc, OU=Paho, CN=Paho/emailAddress=icraggs@modelbasedtesting.co.uk
        Subject Public Key Info:
            Public Key Algorithm: rsaEncryption
                Public-Key: (2048 bit)
                Modulus:
                    00:b2:ef:ff:a1:56:c6:eb:99:01:72:4b:e2:50:7c:
                    23:d7:92:c4:79:9f:1e:d9:ff:d4:94:e4:2c:b7:6a:
                    2e:c9:65:80:05:95:82:31:a4:ce:dc:6d:a7:50:bb:
                    7e:10:dc:72:2f:b7:88:d7:4b:47:d6:52:fb:f9:41:
                    60:c7:c3:c8:9b:53:3c:39:ef:47:53:7f:26:56:12:
                    52:4c:9a:c1:05:59:04:51:12:10:1e:13:1d:2d:81:
                    78:42:51:f2:5c:32:a1:7a:a7:6c:a7:85:c8:df:45:
                    67:b1:5a:b6:b4:78:22:4e:fe:d4:b6:c4:70:65:67:
                    11:37:2d:e9:46:b8:92:ca:08:dd:fa:65:f9:e1:98:
                    6e:c5:b1:79:f2:43:87:ae:a9:6a:88:03:80:00:ce:
                    d9:60:e9:07:55:a6:e2:43:9a:2b:8c:19:94:7b:4f:
                    15:1a:77:26:5c:c5:51:f8:56:d5:1a:fd:4f:3d:7c:
                    2d:3e:74:9c:87:86:ef:6d:6a:82:8d:c9:9a:68:c7:
                    96:6d:3c:60:bf:18:6d:ad:d8:e1:67:60:8d:91:87:
                    64:6d:e3:f3:1f:42:73:28:04:8d:6d:54:d1:a5:9f:
                    b9:ae:71:a1:37:e9:89:8d:2e:14:a7:04:ac:2d:bd:
                    11:95:ae:03:f4:6f:a9:2c:2b:56:1a:67:a4:40:84:
                    31:0f
                Exponent: 65537 (0x10001)
        X509v3 extensions:
            X509v3 Subject Key Identifier: 
                4C:7B:16:36:65:4D:CD:A3:41:9F:C8:42:3E:71:59:F2:87:92:A0:CB
            X509v3 Authority Key Identifier: 
                keyid:4C:7B:16:36:65:4D:CD:A3:41:9F:C8:42:3E:71:59:F2:87:92:A0:CB

            X509v3 Basic Constraints: 
                CA:TRUE
    Signature Algorithm: sha1WithRSAEncryption
        8f:37:a6:31:d0:f6:76:bb:bb:1b:85:70:f9:4f:74:54:2f:14:
        2d:e3:69:8e:35:1c:0c:b8:c2:4a:3f:2b:b2:34:2b:64:55:1e:
        a1:30:ec:0f:b9:c2:d5:49:4b:c4:09:7a:8f:6e:de:d3:6e:c4:
        7a:1a:14:b4:45:78:09:4f:f2:7c:ec:35:db:47:39:b3:27:11:
        96:dc:74:f4:60:aa:0c:91:7b:a1:8b:0b:8d:8a:55:66:5b:a5:
        7f:42:2c:c2:dc:ae:53:f9:ca:5d:24:c8:78:4d:77:a0:be:14:
        0f:ed:ea:41:bc:8e:1d:5b:51:cd:66:f6:8f:0f:5a:d8:f8:e5:
        ac:74:af:0b:1d:bc:41:a3:04:aa:28:69:64:e2:cd:d0:47:4a:
        46:0e:7c:25:4e:b4:16:bb:d4:b3:b1:90:6a:47:39:f5:c6:37:
        b7:2a:50:87:b4:2c:fc:3b:4d:76:98:ca:ab:2e:7d:15:ea:86:
        f4:52:b2:68:c4:c5:12:a7:06:d1:08:e8:37:a0:98:dd:ee:fe:
        a7:d5:3c:c7:e1:a4:de:ca:b6:7f:46:4e:1d:f2:04:4e:81:18:
        17:37:df:09:84:3f:74:f9:e7:d2:59:02:f8:f0:f6:5f:86:ba:
        19:a3:88:a7:25:32:3d:8d:e0:b9:43:24:1f:77:8b:0a:8c:30:
        56:a6:e7:43
-----BEGIN CERTIFICATE-----
MIIEFzCCAv+gAwIBAgIJAL/Q5ponDxadMA0GCSqGSIb3DQEBBQUAMIGgMQswCQYD
VQQGEwJDQTEQMA4GA1UECAwHT250YXJpbzEPMA0GA1UEBwwGT3R0YXdhMSAwHgYD
VQQKDBdFY2xpcHNlIEZvdW5kYXRpb24sIEluYzENMAsGA1UECwwEUGFobzENMAsG
A1UEAwwEUGFobzEuMCwGCSqGSIb3DQEJARYfaWNyYWdnc0Btb2RlbGJhc2VkdGVz
dGluZy5jby51azAgFw0xMzA4MDkxMjQ1NTZaGA80NzUxMDcwNjEyNDU1NlowgaAx
CzAJBgNVBAYTAkNBMRAwDgYDVQQIDAdPbnRhcmlvMQ8wDQYDVQQHDAZPdHRhd2Ex
IDAeBgNVBAoMF0VjbGlwc2UgRm91bmRhdGlvbiwgSW5jMQ0wCwYDVQQLDARQYWhv
MQ0wCwYDVQQDDARQYWhvMS4wLAYJKoZIhvcNAQkBFh9pY3JhZ2dzQG1vZGVsYmFz
ZWR0ZXN0aW5nLmNvLnVrMIIBIjANBgkqhkiG9w0BAQEFAAOCAQ8AMIIBCgKCAQEA
su//oVbG65kBckviUHwj15LEeZ8e2f/UlOQst2ouyWWABZWCMaTO3G2nULt+ENxy
L7eI10tH1lL7+UFgx8PIm1M8Oe9HU38mVhJSTJrBBVkEURIQHhMdLYF4QlHyXDKh
eqdsp4XI30VnsVq2tHgiTv7UtsRwZWcRNy3pRriSygjd+mX54ZhuxbF58kOHrqlq
iAOAAM7ZYOkHVabiQ5orjBmUe08VGncmXMVR+FbVGv1PPXwtPnSch4bvbWqCjcma
aMeWbTxgvxhtrdjhZ2CNkYdkbePzH0JzKASNbVTRpZ+5rnGhN+mJjS4UpwSsLb0R
la4D9G+pLCtWGmekQIQxDwIDAQABo1AwTjAdBgNVHQ4EFgQUTHsWNmVNzaNBn8hC
PnFZ8oeSoMswHwYDVR0jBBgwFoAUTHsWNmVNzaNBn8hCPnFZ8oeSoMswDAYDVR0T
BAUwAwEB/zANBgkqhkiG9w0BAQUFAAOCAQEAjzemMdD2dru7G4Vw+U90VC8ULeNp
jjUcDLjCSj8rsjQrZFUeoTDsD7nC1UlLxAl6j27e027EehoUtEV4CU/yfOw120c5
sycRltx09GCqDJF7oYsLjYpVZlulf0IswtyuU/nKXSTIeE13oL4UD+3qQbyOHVtR
zWb2jw9a2PjlrHSvCx28QaMEqihpZOLN0EdKRg58JU60FrvUs7GQakc59cY3typQ
h7Qs/DtNdpjKqy59FeqG9FKyaMTFEqcG0QjoN6CY3e7+p9U8x+Gk3sq2f0ZOHfIE
ToEYFzffCYQ/dPnn0lkC+PD2X4a6GaOIpyUyPY3guUMkH3eLCowwVqbnQw==
-----END CERTIFICATE-----
Certificate:
    Data:
        Version: 1 (0x0)
        Serial Number:
            db:0b:13:04:c9:f7:0a:05
        Signature Algorithm: sha1WithRSAEncryption
        Issuer: C=CA, ST=Ontario, L=Ottawa, O=Eclipse Foundation, Inc, OU=Paho, CN=Paho/emailAddress=icraggs@modelbasedtesting.co.uk
        Validity
            Not Before: Aug  9 12:47:18 2013 GMT
            Not After : Jul  6 12:47:18 4751 GMT
        Subject: C=UK, ST=England, L=Winchester, O=IBM, CN=Ian Craggs/emailAddress=icraggs@uk.ibm.com
        Subject Public Key Info:
            Public Key Algorithm: rsaEncryption
                Public-Key: (2048 bit)
                Modulus:
                    00:d7:47:ec:57:c8:9a:60:a2:98:c8:9e:06:e8:87:
                    35:75:76:7b:3c:08:26:05:10:2d:14:c5:95:2d:f3:
                    d8:7c:b9:18:d9:e8:84:cf:d7:3b:97:8f:e8:69:08:
                    cf:be:26:7f:f6:d0:ba:35:49:cd:b1:50:5b:a1:bc:
                    a3:04:4d:37:98:17:dc:5c:32:98:fd:7c:e0:0a:e5:
                    d8:69:ea:ae:1d:46:12:3f:fe:9d:fe:a2:e8:94:f5:
                    11:98:fc:5e:b4:de:db:93:73:e8:f5:84:5d:6e:9b:
                    c1:56:db:93:e5:77:da:30:1a:6b:23:77:ef:70:6f:
                    2b:af:23:26:30:3c:b6:83:26:02:bf:ce:d0:35:fd:
                    ca:56:9f:9a:70:86:ef:76:7b:36:b9:44:ca:3f:ec:
                    40:f6:32:a2:ba:55:84:5f:3b:3d:73:c9:a9:f9:e5:
                    11:90:54:47:8b:bd:1c:d4:6b:0d:3e:01:2f:62:d4:
                    4d:c2:c1:66:7a:f1:27:6d:a3:b3:37:27:c3:b9:ed:
                    23:af:a3:7f:e1:69:33:7d:37:05:d5:6e:2e:a5:8f:
                    0d:bd:8f:af:68:e2:6e:42:f2:94:71:19:57:f5:22:
                    90:f0:f7:f2:58:07:06:89:fa:48:6d:86:a1:a4:2c:
                    4e:08:87:b1:b9:29:e2:19:42:b1:b2:18:d9:bc:24:
                    75:b1
                Exponent: 65537 (0x10001)
    Signature Algorithm: sha1WithRSAEncryption
        51:e8:a4:54:c8:77:de:84:37:2c:56:47:08:35:0a:43:ac:ae:
        16:ed:70:b6:66:b5:17:22:cd:48:d9:3b:b3:78:51:52:6a:e8:
        38:4f:e8:ce:2f:7b:77:30:94:a6:09:a1:6d:87:7d:e9:4d:1e:
        d8:cc:56:8f:69:3a:1c:a7:9c:8e:e4:56:d4:71:23:40:5b:f5:
        be:13:a2:25:c0:84:69:22:8c:01:5c:ca:6c:07:bc:4f:f1:89:
        3e:c2:f5:f9:e5:42:8a:1b:65:60:5b:7c:7b:0d:ba:c4:07:07:
        05:92:4b:ea:7a:5f:19:40:21:04:42:33:80:68:d0:06:1f:d2:
        9f:0d:dc:69:56:46:94:41:69:b2:c2:33:72:c9:00:07:6a:c5:
        d0:cb:95:7b:d5:9a:c4:54:63:3e:65:05:70:4a:59:66:80:34:
        b2:e2:48:92:a4:4b:f9:7c:34:f9:84:07:fe:87:db:38:f4:bf:
        8d:ae:65:c6:d2:56:c0:68:39:1f:68:1c:6f:8f:f3:4a:dc:6b:
        51:d6:b9:c8:48:a7:7f:3a:61:e2:d8:96:89:55:c6:3c:9f:fe:
        b6:59:da:54:81:44:1d:c8:63:3e:33:8f:9a:39:a3:81:a1:ea:
        19:be:43:16:02:16:d1:02:d3:3f:b0:82:34:a4:fd:9d:03:73:
        de:65:c3:eb
-----BEGIN CERTIFICATE-----
MIIDmTCCAoECCQDbCxMEyfcKBTANBgkqhkiG9w0BAQUFADCBoDELMAkGA1UEBhMC
Q0ExEDAOBgNVBAgMB09udGFyaW8xDzANBgNVBAcMBk90dGF3YTEgMB4GA1UECgwX
RWNsaXBzZSBGb3VuZGF0aW9uLCBJbmMxDTALBgNVBAsMBFBhaG8xDTALBgNVBAMM
BFBhaG8xLjAsBgkqhkiG9w0BCQEWH2ljcmFnZ3NAbW9kZWxiYXNlZHRlc3Rpbmcu
Y28udWswIBcNMTMwODA5MTI0NzE4WhgPNDc1MTA3MDYxMjQ3MThaMHoxCzAJBgNV
BAYTAlVLMRAwDgYDVQQIDAdFbmdsYW5kMRMwEQYDVQQHDApXaW5jaGVzdGVyMQww
CgYDVQQKDANJQk0xEzARBgNVBAMMCklhbiBDcmFnZ3MxITAfBgkqhkiG9w0BCQEW
EmljcmFnZ3NAdWsuaWJtLmNvbTCCASIwDQYJKoZIhvcNAQEBBQADggEPADCCAQoC
ggEBANdH7FfImmCimMieBuiHNXV2ezwIJgUQLRTFlS3z2Hy5GNnohM/XO5eP6GkI
z74mf/bQujVJzbFQW6G8owRNN5gX3FwymP184Arl2Gnqrh1GEj/+nf6i6JT1EZj8
XrTe25Nz6PWEXW6bwVbbk+V32jAaayN373BvK68jJjA8toMmAr/O0DX9ylafmnCG
73Z7NrlEyj/sQPYyorpVhF87PXPJqfnlEZBUR4u9HNRrDT4BL2LUTcLBZnrxJ22j
szcnw7ntI6+jf+FpM303BdVuLqWPDb2Pr2jibkLylHEZV/UikPD38lgHBon6SG2G
oaQsTgiHsbkp4hlCsbIY2bwkdbECAwEAATANBgkqhkiG9w0BAQUFAAOCAQEAUeik
VMh33oQ3LFZHCDUKQ6yuFu1wtma1FyLNSNk7s3hRUmroOE/ozi97dzCUpgmhbYd9
6U0e2MxWj2k6HKecjuRW1HEjQFv1vhOiJcCEaSKMAVzKbAe8T/GJPsL1+eVCihtl
YFt8ew26xAcHBZJL6npfGUAhBEIzgGjQBh/Snw3caVZGlEFpssIzcskAB2rF0MuV
e9WaxFRjPmUFcEpZZoA0suJIkqRL+Xw0+YQH/ofbOPS/ja5lxtJWwGg5H2gcb4/z
StxrUda5yEinfzph4tiWiVXGPJ/+tlnaVIFEHchjPjOPmjmjgaHqGb5DFgIW0QLT
P7CCNKT9nQNz3mXD6w==
-----END CERTIFICATE-----
