Certificate:
    Data:
        Version: 3 (0x2)
        Serial Number: 1 (0x1)
        Signature Algorithm: sha256WithRSAEncryption
        Issuer: C=GB, ST=Wiltshire, O=Paho Project, OU=Testing, CN=Signing CA
        Validity
            Not Before: Apr 13 13:22:38 2023 GMT
            Not After : Apr 11 13:22:38 2028 GMT
        Subject: C=GB, ST=Wiltshire, L=Salisbury, O=Paho Project, OU=Production, CN=localhost
        Subject Public Key Info:
            Public Key Algorithm: rsaEncryption
                RSA Public-Key: (2048 bit)
                Modulus:
                    00:c8:b2:1f:2b:d4:6c:20:f0:67:64:14:9d:79:14:
                    b3:99:49:a9:65:1d:20:f3:1e:b7:96:92:9b:e7:0c:
                    1d:90:be:dc:a5:c5:10:e1:9e:d9:fd:f4:6f:f0:1e:
                    18:ef:db:fd:f9:88:e3:fb:0f:fb:4b:6b:15:c3:8d:
                    43:86:6c:2b:f0:12:94:b5:ce:9d:60:57:04:15:0e:
                    07:0f:72:87:5b:38:62:f4:75:5d:17:05:3d:45:1f:
                    e7:7b:ee:da:50:95:22:10:de:f8:87:cb:b8:39:38:
                    cf:88:6d:69:80:7d:df:a7:50:28:45:df:aa:33:e3:
                    3d:d6:a2:4c:2b:8d:bb:83:db:98:2d:cd:1a:7f:88:
                    75:e5:5d:fc:ea:c8:60:93:31:76:66:f3:24:ad:2b:
                    fa:20:77:41:61:ab:43:ee:47:52:45:6b:a4:11:98:
                    3d:bf:7c:09:57:c0:0b:36:8f:ba:be:e3:29:d5:3e:
                    f9:c1:51:15:1f:b1:c1:4e:9f:c8:68:e2:b1:d8:11:
                    25:7b:65:56:11:79:fe:f7:f1:c8:ac:9b:b0:a2:4b:
                    e5:c4:e4:96:ab:92:30:f8:ce:a7:ae:c9:53:e1:f4:
                    d9:f8:55:e1:52:1a:b2:e0:ae:b6:76:f7:e4:dc:2c:
                    0b:f2:c3:09:b2:f7:42:8d:56:d6:d4:3b:af:18:2e:
                    26:31
                Exponent: 65537 (0x10001)
        X509v3 extensions:
            X509v3 Basic Constraints: 
                CA:FALSE
            Netscape Comment: 
                OpenSSL Generated Certificate
            X509v3 Subject Key Identifier: 
                93:31:D2:88:FB:6F:4C:AB:37:BE:CE:30:6B:1B:AB:70:27:58:8F:DA
            X509v3 Authority Key Identifier: 
                keyid:E1:BE:F5:5F:36:50:CF:FE:3D:42:EE:80:33:22:46:C2:3D:2A:41:41

    Signature Algorithm: sha256WithRSAEncryption
         4a:2e:1f:9c:7e:99:2e:cc:40:b4:49:ea:92:27:d4:35:f5:07:
         6b:ff:a2:2e:15:47:76:40:3c:9b:1c:85:b3:a8:f6:a6:f2:15:
         c0:a1:dc:d6:bd:66:71:09:fd:e6:93:4f:9a:36:e4:a7:0f:b0:
         f5:5a:4d:e2:30:50:9b:12:0d:12:4d:6a:67:81:02:17:92:69:
         00:e4:24:91:5c:83:99:9c:7b:6d:8d:3f:fc:46:81:c2:4a:f4:
         9c:3f:d6:5f:6b:1f:c6:84:fa:de:33:26:3a:d4:d2:4c:98:23:
         c1:2b:20:f2:12:bd:dc:61:5f:63:84:4c:1b:7b:c5:28:3c:4a:
         bb:da:07:61:b7:d7:79:43:66:eb:f9:21:96:14:34:80:1b:bd:
         b7:62:22:ea:7a:0a:25:b5:27:fb:40:c7:f7:ce:18:ea:e6:16:
         55:d9:bb:de:98:c5:19:04:a1:3c:03:e2:6f:50:79:ac:ce:88:
         9c:6e:d0:1a:d2:87:10:2e:59:dd:14:19:be:23:aa:bc:17:1b:
         21:96:5f:08:ce:16:d9:71:52:72:f9:f5:be:f7:cd:17:ae:9a:
         9a:3f:e1:11:a3:a9:9a:6c:8d:ca:c9:7f:e5:6d:32:72:4e:3e:
         c0:c7:96:95:e4:dc:9e:b6:3a:e3:57:4f:eb:79:2a:09:61:51:
         78:c1:b9:50
-----BEGIN CERTIFICATE-----
MIIDyjCCArKgAwIBAgIBATANBgkqhkiG9w0BAQsFADBfMQswCQYDVQQGEwJHQjES
MBAGA1UECAwJV2lsdHNoaXJlMRUwEwYDVQQKDAxQYWhvIFByb2plY3QxEDAOBgNV
BAsMB1Rlc3RpbmcxEzARBgNVBAMMClNpZ25pbmcgQ0EwHhcNMjMwNDEzMTMyMjM4
WhcNMjgwNDExMTMyMjM4WjB1MQswCQYDVQQGEwJHQjESMBAGA1UECAwJV2lsdHNo
aXJlMRIwEAYDVQQHDAlTYWxpc2J1cnkxFTATBgNVBAoMDFBhaG8gUHJvamVjdDET
MBEGA1UECwwKUHJvZHVjdGlvbjESMBAGA1UEAwwJbG9jYWxob3N0MIIBIjANBgkq
hkiG9w0BAQEFAAOCAQ8AMIIBCgKCAQEAyLIfK9RsIPBnZBSdeRSzmUmpZR0g8x63
lpKb5wwdkL7cpcUQ4Z7Z/fRv8B4Y79v9+Yjj+w/7S2sVw41Dhmwr8BKUtc6dYFcE
FQ4HD3KHWzhi9HVdFwU9RR/ne+7aUJUiEN74h8u4OTjPiG1pgH3fp1AoRd+qM+M9
1qJMK427g9uYLc0af4h15V386shgkzF2ZvMkrSv6IHdBYatD7kdSRWukEZg9v3wJ
V8ALNo+6vuMp1T75wVEVH7HBTp/IaOKx2BEle2VWEXn+9/HIrJuwokvlxOSWq5Iw
+M6nrslT4fTZ+FXhUhqy4K62dvfk3CwL8sMJsvdCjVbW1DuvGC4mMQIDAQABo3sw
eTAJBgNVHRMEAjAAMCwGCWCGSAGG+EIBDQQfFh1PcGVuU1NMIEdlbmVyYXRlZCBD
ZXJ0aWZpY2F0ZTAdBgNVHQ4EFgQUkzHSiPtvTKs3vs4waxurcCdYj9owHwYDVR0j
BBgwFoAU4b71XzZQz/49Qu6AMyJGwj0qQUEwDQYJKoZIhvcNAQELBQADggEBAEou
H5x+mS7MQLRJ6pIn1DX1B2v/oi4VR3ZAPJschbOo9qbyFcCh3Na9ZnEJ/eaTT5o2
5KcPsPVaTeIwUJsSDRJNameBAheSaQDkJJFcg5mce22NP/xGgcJK9Jw/1l9rH8aE
+t4zJjrU0kyYI8ErIPISvdxhX2OETBt7xSg8SrvaB2G313lDZuv5IZYUNIAbvbdi
Iup6CiW1J/tAx/fOGOrmFlXZu96YxRkEoTwD4m9QeazOiJxu0BrShxAuWd0UGb4j
qrwXGyGWXwjOFtlxUnL59b73zReumpo/4RGjqZpsjcrJf+VtMnJOPsDHlpXk3J62
OuNXT+t5KglhUXjBuVA=
-----END CERTIFICATE-----
