Certificate:
    Data:
        Version: 3 (0x2)
        Serial Number: 4 (0x4)
        Signature Algorithm: sha256WithRSAEncryption
        Issuer: C=GB, ST=Wiltshire, O=Paho Project, OU=Testing, CN=Signing CA
        Validity
            Not Before: Apr 13 13:22:44 2023 GMT
            Not After : Apr 11 13:22:44 2028 GMT
        Subject: C=GB, ST=Wiltshire, L=Salisbury, O=Paho Project, OU=Production, CN=test client revoked
        Subject Public Key Info:
            Public Key Algorithm: rsaEncryption
                RSA Public-Key: (2048 bit)
                Modulus:
                    00:b0:df:00:8c:5f:84:08:db:a5:1a:6f:2c:2c:b8:
                    35:e7:41:7e:ef:65:09:97:a3:87:35:b5:ce:62:29:
                    e9:e6:05:47:22:83:d8:22:d1:77:a7:c1:44:05:45:
                    54:e7:26:84:88:56:8d:5e:33:b2:4c:21:47:81:48:
                    01:80:2c:bf:91:fe:0d:cd:20:c2:5e:09:be:7c:26:
                    5e:d7:ee:18:94:af:4f:25:00:81:c9:90:e9:2e:b4:
                    e0:31:b8:56:c2:45:24:07:4a:48:49:9a:6d:3e:9d:
                    df:50:2a:19:1a:34:37:18:84:19:9c:90:66:cb:3e:
                    39:7b:f7:72:d9:76:bb:de:e6:04:d0:d7:2c:5b:13:
                    41:59:13:f0:22:e1:0c:58:40:32:8b:37:74:6b:71:
                    15:31:47:19:08:90:56:11:c8:56:eb:37:9c:0c:cc:
                    d8:21:2b:01:92:ff:13:7f:f1:d1:83:7e:67:a7:3a:
                    1a:20:0f:f5:f0:04:9e:ad:69:64:05:68:2f:4c:ff:
                    c3:63:55:1c:ff:6f:6e:49:19:e9:93:81:77:53:a2:
                    4d:d2:50:ce:4a:4e:9c:8b:67:4d:5b:50:fa:05:cc:
                    88:76:69:81:30:d8:ee:c9:3b:c2:69:77:09:12:77:
                    df:17:c7:33:db:de:10:84:a1:89:95:a2:a6:9b:43:
                    60:91
                Exponent: 65537 (0x10001)
        X509v3 extensions:
            X509v3 Basic Constraints: 
                CA:FALSE
            Netscape Comment: 
                OpenSSL Generated Certificate
            X509v3 Subject Key Identifier: 
                08:82:0F:14:6E:DC:5F:22:10:D1:D7:8A:84:92:80:AB:4F:40:D5:BA
            X509v3 Authority Key Identifier: 
                keyid:E1:BE:F5:5F:36:50:CF:FE:3D:42:EE:80:33:22:46:C2:3D:2A:41:41

    Signature Algorithm: sha256WithRSAEncryption
         1d:8c:d5:f1:52:8e:c3:ca:1a:66:6c:21:f3:8a:41:4b:53:a8:
         36:73:15:f3:56:38:93:48:9d:ff:3e:cd:36:24:d2:bf:17:da:
         48:6b:26:2a:67:3d:0e:fd:eb:9e:9f:b2:64:40:74:13:b8:48:
         e6:e9:f5:6b:2b:7d:62:7a:d4:8f:01:9a:ab:b9:cc:01:1b:3d:
         69:27:17:0b:84:91:f8:49:10:69:2f:68:31:13:71:c0:42:ac:
         d4:ff:06:c9:7b:a2:4c:7f:c9:06:66:0c:b4:a5:8f:e0:f3:9f:
         bb:86:10:6a:47:fa:20:1e:9c:d4:03:ef:4a:46:c5:c3:b6:72:
         f2:6d:48:45:51:fe:44:4c:05:4e:db:18:41:e4:21:3f:2a:00:
         11:86:1c:cc:85:de:68:da:ec:86:19:6f:9b:b9:a8:85:47:7d:
         7b:6e:88:3b:3d:e3:86:96:2b:80:7b:31:a0:ea:24:a4:43:5c:
         20:df:55:88:31:13:a7:eb:15:18:ba:23:95:c6:2e:53:90:05:
         9d:b4:04:9d:c1:44:d7:97:b4:27:51:cc:ac:a8:c7:3a:d0:dd:
         45:a8:48:a3:5d:33:39:77:94:a6:c2:94:b5:c6:a6:15:ff:8e:
         c8:ba:ce:33:c7:6b:f9:74:61:c9:f8:0f:41:88:1c:7b:18:26:
         48:66:64:f8
-----BEGIN CERTIFICATE-----
MIID1DCCArygAwIBAgIBBDANBgkqhkiG9w0BAQsFADBfMQswCQYDVQQGEwJHQjES
MBAGA1UECAwJV2lsdHNoaXJlMRUwEwYDVQQKDAxQYWhvIFByb2plY3QxEDAOBgNV
BAsMB1Rlc3RpbmcxEzARBgNVBAMMClNpZ25pbmcgQ0EwHhcNMjMwNDEzMTMyMjQ0
WhcNMjgwNDExMTMyMjQ0WjB/MQswCQYDVQQGEwJHQjESMBAGA1UECAwJV2lsdHNo
aXJlMRIwEAYDVQQHDAlTYWxpc2J1cnkxFTATBgNVBAoMDFBhaG8gUHJvamVjdDET
MBEGA1UECwwKUHJvZHVjdGlvbjEcMBoGA1UEAwwTdGVzdCBjbGllbnQgcmV2b2tl
ZDCCASIwDQYJKoZIhvcNAQEBBQADggEPADCCAQoCggEBALDfAIxfhAjbpRpvLCy4
NedBfu9lCZejhzW1zmIp6eYFRyKD2CLRd6fBRAVFVOcmhIhWjV4zskwhR4FIAYAs
v5H+Dc0gwl4JvnwmXtfuGJSvTyUAgcmQ6S604DG4VsJFJAdKSEmabT6d31AqGRo0
NxiEGZyQZss+OXv3ctl2u97mBNDXLFsTQVkT8CLhDFhAMos3dGtxFTFHGQiQVhHI
Vus3nAzM2CErAZL/E3/x0YN+Z6c6GiAP9fAEnq1pZAVoL0z/w2NVHP9vbkkZ6ZOB
d1OiTdJQzkpOnItnTVtQ+gXMiHZpgTDY7sk7wml3CRJ33xfHM9veEIShiZWipptD
YJECAwEAAaN7MHkwCQYDVR0TBAIwADAsBglghkgBhvhCAQ0EHxYdT3BlblNTTCBH
ZW5lcmF0ZWQgQ2VydGlmaWNhdGUwHQYDVR0OBBYEFAiCDxRu3F8iENHXioSSgKtP
QNW6MB8GA1UdIwQYMBaAFOG+9V82UM/+PULugDMiRsI9KkFBMA0GCSqGSIb3DQEB
CwUAA4IBAQAdjNXxUo7DyhpmbCHzikFLU6g2cxXzVjiTSJ3/Ps02JNK/F9pIayYq
Zz0O/euen7JkQHQTuEjm6fVrK31ietSPAZqrucwBGz1pJxcLhJH4SRBpL2gxE3HA
QqzU/wbJe6JMf8kGZgy0pY/g85+7hhBqR/ogHpzUA+9KRsXDtnLybUhFUf5ETAVO
2xhB5CE/KgARhhzMhd5o2uyGGW+buaiFR317bog7PeOGliuAezGg6iSkQ1wg31WI
MROn6xUYuiOVxi5TkAWdtASdwUTXl7QnUcysqMc60N1FqEijXTM5d5SmwpS1xqYV
/47Ius4zx2v5dGHJ+A9BiBx7GCZIZmT4
-----END CERTIFICATE-----
