Certificate:
    Data:
        Version: 3 (0x2)
        Serial Number: 1 (0x1)
    Signature Algorithm: sha256WithRSAEncryption
        Issuer: C=GB, ST=Derbyshire, L=Derby, O=Mosquitto Project, OU=Testing, CN=Root CA
        Validity
            Not Before: Mar  1 18:53:36 2018 GMT
            Not After : Feb 28 18:53:36 2023 GMT
        Subject: C=GB, ST=Derbyshire, O=Mosquitto Project, OU=Testing, CN=Signing CA
        Subject Public Key Info:
            Public Key Algorithm: rsaEncryption
                Public-Key: (1024 bit)
                Modulus:
                    00:af:ad:b0:e4:78:b8:73:01:6a:9e:78:1e:bf:36:
                    5b:60:dc:ee:28:ce:16:3c:73:30:b3:02:cd:5c:07:
                    a2:36:ee:a1:c5:43:32:0c:46:57:cb:fb:1c:52:db:
                    4e:65:85:8a:5d:a6:cd:66:43:ad:bc:70:1b:e6:b0:
                    11:0f:d8:54:1f:57:9e:29:4e:2b:1b:c5:70:b2:3d:
                    38:a7:63:3f:1a:06:2f:6d:09:2c:7c:90:60:db:8c:
                    3a:11:20:a7:db:20:25:d9:c6:97:74:50:5a:e0:fd:
                    81:aa:de:ea:1d:e5:be:61:59:0d:76:e5:ab:7f:3b:
                    b2:a6:38:b9:bb:32:aa:72:ef
                Exponent: 65537 (0x10001)
        X509v3 extensions:
            X509v3 Subject Key Identifier: 
                9E:54:3E:E5:2F:E5:EA:40:4A:FC:37:96:6C:45:BB:1A:79:0E:CA:AB
            X509v3 Authority Key Identifier: 
                keyid:1C:B4:4E:8B:84:0D:1E:0F:C4:CC:F4:17:87:DB:CA:F2:55:F1:34:39

            X509v3 Basic Constraints: 
                CA:TRUE
    Signature Algorithm: sha256WithRSAEncryption
         6c:2d:41:ca:7b:89:84:27:ca:b3:64:d5:73:b2:5b:dd:fc:6f:
         d4:68:ae:f1:30:3e:9e:ca:28:2b:d3:2e:0c:61:3e:d5:9a:fd:
         67:b1:60:e5:54:9f:a4:95:51:5b:00:2d:f9:46:82:de:49:df:
         ce:2a:f3:f6:2e:8f:8f:64:2b:c9:2f:ce:ff:d2:53:a0:0a:c4:
         4a:e9:20:fa:5e:79:45:21:18:c2:d6:c1:64:92:e4:67:3a:92:
         04:46:5e:6a:39:84:c8:f1:0e:42:3c:fd:b2:c2:7b:e9:af:44:
         2c:19:30:61:01:39:47:6d:38:85:90:4b:e5:04:f4:87:72:46:
         4a:9a
-----BEGIN CERTIFICATE-----
MIICnTCCAgagAwIBAgIBATANBgkqhkiG9w0BAQsFADByMQswCQYDVQQGEwJHQjET
MBEGA1UECAwKRGVyYnlzaGlyZTEOMAwGA1UEBwwFRGVyYnkxGjAYBgNVBAoMEU1v
c3F1aXR0byBQcm9qZWN0MRAwDgYDVQQLDAdUZXN0aW5nMRAwDgYDVQQDDAdSb290
IENBMB4XDTE4MDMwMTE4NTMzNloXDTIzMDIyODE4NTMzNlowZTELMAkGA1UEBhMC
R0IxEzARBgNVBAgMCkRlcmJ5c2hpcmUxGjAYBgNVBAoMEU1vc3F1aXR0byBQcm9q
ZWN0MRAwDgYDVQQLDAdUZXN0aW5nMRMwEQYDVQQDDApTaWduaW5nIENBMIGfMA0G
CSqGSIb3DQEBAQUAA4GNADCBiQKBgQCvrbDkeLhzAWqeeB6/Nltg3O4ozhY8czCz
As1cB6I27qHFQzIMRlfL+xxS205lhYpdps1mQ628cBvmsBEP2FQfV54pTisbxXCy
PTinYz8aBi9tCSx8kGDbjDoRIKfbICXZxpd0UFrg/YGq3uod5b5hWQ125at/O7Km
OLm7Mqpy7wIDAQABo1AwTjAdBgNVHQ4EFgQUnlQ+5S/l6kBK/DeWbEW7GnkOyqsw
HwYDVR0jBBgwFoAUHLROi4QNHg/EzPQXh9vK8lXxNDkwDAYDVR0TBAUwAwEB/zAN
BgkqhkiG9w0BAQsFAAOBgQBsLUHKe4mEJ8qzZNVzslvd/G/UaK7xMD6eyigr0y4M
YT7Vmv1nsWDlVJ+klVFbAC35RoLeSd/OKvP2Lo+PZCvJL87/0lOgCsRK6SD6XnlF
IRjC1sFkkuRnOpIERl5qOYTI8Q5CPP2ywnvpr0QsGTBhATlHbTiFkEvlBPSHckZK
mg==
-----END CERTIFICATE-----
-----BEGIN CERTIFICATE-----
MIICtDCCAh2gAwIBAgIJAObVjC0tPL4iMA0GCSqGSIb3DQEBCwUAMHIxCzAJBgNV
BAYTAkdCMRMwEQYDVQQIDApEZXJieXNoaXJlMQ4wDAYDVQQHDAVEZXJieTEaMBgG
A1UECgwRTW9zcXVpdHRvIFByb2plY3QxEDAOBgNVBAsMB1Rlc3RpbmcxEDAOBgNV
BAMMB1Jvb3QgQ0EwIBcNMTgwMzAxMTg1MzM2WhgPMjEwMDA0MjAxODUzMzZaMHIx
CzAJBgNVBAYTAkdCMRMwEQYDVQQIDApEZXJieXNoaXJlMQ4wDAYDVQQHDAVEZXJi
eTEaMBgGA1UECgwRTW9zcXVpdHRvIFByb2plY3QxEDAOBgNVBAsMB1Rlc3Rpbmcx
EDAOBgNVBAMMB1Jvb3QgQ0EwgZ8wDQYJKoZIhvcNAQEBBQADgY0AMIGJAoGBANSZ
3aRYdHcnta24XXJGfomsg2OpYys3KkqK76aWEwhqRvdH2m54yBvHTZ2LsMLQro0q
r4oGLyvlupC9fxwQF4ZDFHrn7VbxU947V+cipGkRaECXiGVO1ngUSpKti8nrIUkn
FXkLmVaGuVv1jVOGBi6/6f3ct6LsNyFqXzaSw9DtAgMBAAGjUDBOMB0GA1UdDgQW
BBQctE6LhA0eD8TM9BeH28ryVfE0OTAfBgNVHSMEGDAWgBQctE6LhA0eD8TM9BeH
28ryVfE0OTAMBgNVHRMEBTADAQH/MA0GCSqGSIb3DQEBCwUAA4GBAHVShEeqQRjP
IoMU8MFnnC1ZadADvSn1E6gRR7eoNU0MeMpTYmTA+TIklEzhaRHSkQqyPHAe/YMl
WLmq1NqyxPv9uKekVlatJxYbm1ME4e+wGs3U9OGsIKX0nFcBO8iqpj5s7GZmSYyY
u1YJnq1oe0C5IblVB9amcoB743/YyMme
-----END CERTIFICATE-----
