Certificate:
    Data:
        Version: 3 (0x2)
        Serial Number: 1 (0x1)
        Signature Algorithm: sha256WithRSAEncryption
        Issuer: C=GB, ST=Wiltshire, L=Salisbury, O=Paho Project, OU=Testing, CN=Root CA
        Validity
            Not Before: Apr 13 13:22:31 2023 GMT
            Not After : Apr 11 13:22:31 2028 GMT
        Subject: C=GB, ST=Wiltshire, O=Paho Project, OU=Testing, CN=Signing CA
        Subject Public Key Info:
            Public Key Algorithm: rsaEncryption
                RSA Public-Key: (2048 bit)
                Modulus:
                    00:e6:ce:0e:a2:6a:56:1c:35:8c:7a:af:31:43:7d:
                    28:cb:61:15:81:2d:37:ff:f1:8f:7d:78:c3:37:58:
                    8f:6a:4c:00:b6:9d:04:f3:1c:cd:fb:ca:7d:c0:dc:
                    2b:3b:e4:c1:00:0c:71:83:df:cf:12:6f:98:ea:19:
                    01:0b:87:5f:df:a7:58:76:9c:56:b9:f2:1d:d8:9f:
                    24:89:eb:af:7f:fe:47:5a:a8:b3:79:c2:46:be:38:
                    bf:77:03:61:b7:de:d0:ae:37:8b:ad:0d:02:5c:c3:
                    e2:3a:17:e7:fc:86:9e:cd:ff:87:21:4a:c9:f5:c2:
                    3d:bf:c9:14:1e:19:d9:89:19:e9:d9:b2:c8:a9:e9:
                    d2:9b:ae:73:f2:b7:e7:fc:3d:9b:c3:72:b6:be:10:
                    fc:0c:c2:eb:b7:8f:4a:67:4c:1b:43:ca:4e:58:df:
                    cc:74:c6:6b:95:de:09:ae:ef:60:62:81:82:74:de:
                    b8:48:24:3e:0a:ac:75:72:fa:f8:5d:f2:72:7a:bd:
                    04:13:d2:c8:90:a3:ad:08:39:74:22:3f:10:7b:88:
                    37:b8:77:2b:4a:34:1a:fa:4a:64:82:b4:fe:de:6c:
                    b5:a5:4c:70:6b:7e:ab:b4:2f:57:80:f0:0c:49:1b:
                    f1:32:1f:46:2f:12:af:e7:96:be:b1:09:df:b9:6a:
                    88:bf
                Exponent: 65537 (0x10001)
        X509v3 extensions:
            X509v3 Subject Key Identifier: 
                E1:BE:F5:5F:36:50:CF:FE:3D:42:EE:80:33:22:46:C2:3D:2A:41:41
            X509v3 Authority Key Identifier: 
                keyid:FE:98:8A:C3:41:B2:71:3A:4A:B3:76:5A:3C:17:06:93:11:99:8E:C8

            X509v3 Basic Constraints: 
                CA:TRUE
    Signature Algorithm: sha256WithRSAEncryption
         0d:67:f0:6d:9e:7f:ad:7a:fb:81:f7:ed:40:fe:80:69:e3:df:
         94:ed:94:b7:3f:11:db:02:ba:08:1e:a9:28:95:b5:3f:e5:86:
         02:6d:33:3c:57:39:be:18:4a:d5:18:0f:e8:59:5b:40:38:b2:
         9d:71:18:4c:b1:e6:d9:51:2d:a0:7b:af:35:b4:d9:f3:d8:f5:
         09:b9:e5:e9:81:38:b0:a6:89:57:51:76:71:7d:91:bb:db:10:
         2b:25:ce:2d:59:5a:cd:29:a2:19:a6:a0:56:19:d7:38:f4:cb:
         94:43:90:ff:20:ce:af:37:c7:73:34:ef:fb:cb:e1:f2:1f:68:
         42:91:9d:33:3f:a1:7a:cb:80:5f:f2:52:81:f1:15:fa:79:01:
         1a:29:c4:36:41:26:75:5c:4b:ff:be:67:12:d8:d2:72:03:5a:
         3e:2e:aa:b3:10:b5:10:37:2b:eb:f7:59:3a:66:87:f4:ca:e4:
         d4:35:6f:78:aa:26:de:ac:02:65:91:d2:fa:80:db:b9:8b:a6:
         26:bb:46:8f:21:e8:18:84:a6:b5:17:fb:e2:de:d8:b3:39:b2:
         6a:42:28:e9:05:55:e6:0b:39:32:42:28:a2:72:51:7c:46:96:
         e2:c2:7f:b3:a5:b9:af:3b:04:3a:93:ba:9c:2c:0a:28:39:fc:
         8b:12:7d:b7
-----BEGIN CERTIFICATE-----
MIIDmjCCAoKgAwIBAgIBATANBgkqhkiG9w0BAQsFADBwMQswCQYDVQQGEwJHQjES
MBAGA1UECAwJV2lsdHNoaXJlMRIwEAYDVQQHDAlTYWxpc2J1cnkxFTATBgNVBAoM
DFBhaG8gUHJvamVjdDEQMA4GA1UECwwHVGVzdGluZzEQMA4GA1UEAwwHUm9vdCBD
QTAeFw0yMzA0MTMxMzIyMzFaFw0yODA0MTExMzIyMzFaMF8xCzAJBgNVBAYTAkdC
MRIwEAYDVQQIDAlXaWx0c2hpcmUxFTATBgNVBAoMDFBhaG8gUHJvamVjdDEQMA4G
A1UECwwHVGVzdGluZzETMBEGA1UEAwwKU2lnbmluZyBDQTCCASIwDQYJKoZIhvcN
AQEBBQADggEPADCCAQoCggEBAObODqJqVhw1jHqvMUN9KMthFYEtN//xj314wzdY
j2pMALadBPMczfvKfcDcKzvkwQAMcYPfzxJvmOoZAQuHX9+nWHacVrnyHdifJInr
r3/+R1qos3nCRr44v3cDYbfe0K43i60NAlzD4joX5/yGns3/hyFKyfXCPb/JFB4Z
2YkZ6dmyyKnp0puuc/K35/w9m8Nytr4Q/AzC67ePSmdMG0PKTljfzHTGa5XeCa7v
YGKBgnTeuEgkPgqsdXL6+F3ycnq9BBPSyJCjrQg5dCI/EHuIN7h3K0o0GvpKZIK0
/t5staVMcGt+q7QvV4DwDEkb8TIfRi8Sr+eWvrEJ37lqiL8CAwEAAaNQME4wHQYD
VR0OBBYEFOG+9V82UM/+PULugDMiRsI9KkFBMB8GA1UdIwQYMBaAFP6YisNBsnE6
SrN2WjwXBpMRmY7IMAwGA1UdEwQFMAMBAf8wDQYJKoZIhvcNAQELBQADggEBAA1n
8G2ef616+4H37UD+gGnj35TtlLc/EdsCuggeqSiVtT/lhgJtMzxXOb4YStUYD+hZ
W0A4sp1xGEyx5tlRLaB7rzW02fPY9Qm55emBOLCmiVdRdnF9kbvbECslzi1ZWs0p
ohmmoFYZ1zj0y5RDkP8gzq83x3M07/vL4fIfaEKRnTM/oXrLgF/yUoHxFfp5ARop
xDZBJnVcS/++ZxLY0nIDWj4uqrMQtRA3K+v3WTpmh/TK5NQ1b3iqJt6sAmWR0vqA
27mLpia7Ro8h6BiEprUX++Le2LM5smpCKOkFVeYLOTJCKKJyUXxGluLCf7Olua87
BDqTupwsCig5/IsSfbc=
-----END CERTIFICATE-----
-----BEGIN CERTIFICATE-----
MIIDwDCCAqigAwIBAgIUPajsILLwblnD7WEDCk00ebOAASgwDQYJKoZIhvcNAQEL
BQAwcDELMAkGA1UEBhMCR0IxEjAQBgNVBAgMCVdpbHRzaGlyZTESMBAGA1UEBwwJ
U2FsaXNidXJ5MRUwEwYDVQQKDAxQYWhvIFByb2plY3QxEDAOBgNVBAsMB1Rlc3Rp
bmcxEDAOBgNVBAMMB1Jvb3QgQ0EwIBcNMjMwNDEzMTMyMjMxWhgPMjEwNTA2MDIx
MzIyMzFaMHAxCzAJBgNVBAYTAkdCMRIwEAYDVQQIDAlXaWx0c2hpcmUxEjAQBgNV
BAcMCVNhbGlzYnVyeTEVMBMGA1UECgwMUGFobyBQcm9qZWN0MRAwDgYDVQQLDAdU
ZXN0aW5nMRAwDgYDVQQDDAdSb290IENBMIIBIjANBgkqhkiG9w0BAQEFAAOCAQ8A
MIIBCgKCAQEAsqFZCPniXeWNtd5NhccCmirdLv6i/c6FAffg4iMPEYanDTh0PPWE
/tPiiOTzcGp5udF3hjjtv2lx5OSEaZYNSIgWERf0LPS0MBsHjMmVoU4S8+gZAst1
igzWKmmZAaUwBdGz0D6cRr7ZMUBfzJnrF1V6VQMLNXfrXmYAXRpxRMcBv3FPYLUc
qXp9gbFYnc+xNbuDE3Ir6/wMOu3Q1H6BvnIGVmdGqnmrONqzkMcqCuTEGlFEBQ4s
HrZUbXQGSKtlMInAM1hyP+qHmuMwTfue8/qspewHds9fNstJL9wLCZBk3Jdf6B5I
S6S+cmHM00cThnuVVwnwgU6syGhgekCNYwIDAQABo1AwTjAdBgNVHQ4EFgQU/piK
w0GycTpKs3ZaPBcGkxGZjsgwHwYDVR0jBBgwFoAU/piKw0GycTpKs3ZaPBcGkxGZ
jsgwDAYDVR0TBAUwAwEB/zANBgkqhkiG9w0BAQsFAAOCAQEAhno5Byj3BGy/je/u
yPl8/uGOqh+uK0Ds+6YvUBRTHlnAFegwQrJhq17bzTdZZlw5s0+bYEVtOwX6p7Zk
mT4zUEPEQ7B223+r3TiB5xQ4ad+wZsDa9X7XY0+vqc+wf4CHFPHX4ZR0Xa1p/vBL
Y3L6ANHkwRFgx+XREmkiv4GJxeZtNSevuM63bbRZ/Y7OSZQlvKTxNlsKqi+61d7w
ciWk9BmmXNm2kQeKwsx5o7bMiETOhDXobcibD8R3U+3tf3vWp9jWIMZKkJ40U1Wb
LM0S9B1ZBkqb3Ml4Rq0AhQntQNGKDobt93ilQoGSUKq0/bR5wA8Yad9viVbbbSsm
kkdThg==
-----END CERTIFICATE-----
