Certificate:
    Data:
        Version: 3 (0x2)
        Serial Number: 2 (0x2)
    Signature Algorithm: sha256WithRSAEncryption
        Issuer: C=GB, ST=Derbyshire, O=Mosquitto Project, OU=Testing, CN=Signing CA
        Validity
            Not Before: Mar  1 18:53:47 2018 GMT
            Not After : Feb 28 18:53:47 2023 GMT
        Subject: C=GB, ST=Nottinghamshire, L=Nottingham, O=Server, OU=Production, CN=test client
        Subject Public Key Info:
            Public Key Algorithm: rsaEncryption
                Public-Key: (1024 bit)
                Modulus:
                    00:b8:67:87:cf:05:35:29:81:b1:16:e3:0a:1c:59:
                    83:36:dc:31:db:af:f2:a9:12:97:e7:96:c8:91:7c:
                    a4:52:65:43:79:f4:20:e0:5f:ed:c0:b4:32:9d:c7:
                    3d:21:9a:9e:92:6c:42:08:06:88:65:d5:4f:5e:70:
                    d9:7d:e1:de:4b:be:26:e2:06:99:4a:54:f7:e7:1c:
                    d6:7c:6f:d5:16:8d:b0:9d:ce:5d:29:f1:51:e9:12:
                    fd:2f:ed:d6:fc:e1:cc:d6:31:0e:ce:0e:74:02:f3:
                    1e:70:41:44:5d:67:ed:3b:9d:2f:43:b8:89:6f:90:
                    52:9b:f1:e9:fc:ed:f8:35:d1
                Exponent: 65537 (0x10001)
        X509v3 extensions:
            X509v3 Basic Constraints: 
                CA:FALSE
            Netscape Comment: 
                OpenSSL Generated Certificate
            X509v3 Subject Key Identifier: 
                27:DF:0F:D3:9A:8F:34:C8:9E:C1:6D:B9:29:99:0F:0D:3A:D1:BB:BD
            X509v3 Authority Key Identifier: 
                keyid:9E:54:3E:E5:2F:E5:EA:40:4A:FC:37:96:6C:45:BB:1A:79:0E:CA:AB

    Signature Algorithm: sha256WithRSAEncryption
         a1:0d:e1:4b:25:ef:4e:67:28:93:33:68:49:65:0e:18:eb:3f:
         17:ae:47:68:75:4d:72:f5:41:6b:c5:f0:1d:06:0d:25:3d:fa:
         ab:39:17:f4:e2:34:b7:49:9d:69:a1:92:4a:69:1b:17:42:5b:
         c6:79:6f:20:31:81:5c:52:c2:58:6b:a0:ba:9a:fe:55:0e:8d:
         0b:80:9f:4a:97:ed:05:05:90:a6:13:23:70:d0:56:93:a6:f4:
         66:af:f0:96:05:8b:67:89:72:67:04:f4:5e:44:36:20:4e:b4:
         97:b4:b2:3b:aa:e2:44:b1:ee:49:13:2c:af:e7:6d:37:e8:09:
         50:6d
-----BEGIN CERTIFICATE-----
MIICzjCCAjegAwIBAgIBAjANBgkqhkiG9w0BAQsFADBlMQswCQYDVQQGEwJHQjET
MBEGA1UECAwKRGVyYnlzaGlyZTEaMBgGA1UECgwRTW9zcXVpdHRvIFByb2plY3Qx
EDAOBgNVBAsMB1Rlc3RpbmcxEzARBgNVBAMMClNpZ25pbmcgQ0EwHhcNMTgwMzAx
MTg1MzQ3WhcNMjMwMjI4MTg1MzQ3WjB4MQswCQYDVQQGEwJHQjEYMBYGA1UECAwP
Tm90dGluZ2hhbXNoaXJlMRMwEQYDVQQHDApOb3R0aW5naGFtMQ8wDQYDVQQKDAZT
ZXJ2ZXIxEzARBgNVBAsMClByb2R1Y3Rpb24xFDASBgNVBAMMC3Rlc3QgY2xpZW50
MIGfMA0GCSqGSIb3DQEBAQUAA4GNADCBiQKBgQC4Z4fPBTUpgbEW4wocWYM23DHb
r/KpEpfnlsiRfKRSZUN59CDgX+3AtDKdxz0hmp6SbEIIBohl1U9ecNl94d5Lvibi
BplKVPfnHNZ8b9UWjbCdzl0p8VHpEv0v7db84czWMQ7ODnQC8x5wQURdZ+07nS9D
uIlvkFKb8en87fg10QIDAQABo3sweTAJBgNVHRMEAjAAMCwGCWCGSAGG+EIBDQQf
Fh1PcGVuU1NMIEdlbmVyYXRlZCBDZXJ0aWZpY2F0ZTAdBgNVHQ4EFgQUJ98P05qP
NMiewW25KZkPDTrRu70wHwYDVR0jBBgwFoAUnlQ+5S/l6kBK/DeWbEW7GnkOyqsw
DQYJKoZIhvcNAQELBQADgYEAoQ3hSyXvTmcokzNoSWUOGOs/F65HaHVNcvVBa8Xw
HQYNJT36qzkX9OI0t0mdaaGSSmkbF0JbxnlvIDGBXFLCWGugupr+VQ6NC4CfSpft
BQWQphMjcNBWk6b0Zq/wlgWLZ4lyZwT0XkQ2IE60l7SyO6riRLHuSRMsr+dtN+gJ
UG0=
-----END CERTIFICATE-----
-----BEGIN RSA PRIVATE KEY-----
MIICXgIBAAKBgQC4Z4fPBTUpgbEW4wocWYM23DHbr/KpEpfnlsiRfKRSZUN59CDg
X+3AtDKdxz0hmp6SbEIIBohl1U9ecNl94d5LvibiBplKVPfnHNZ8b9UWjbCdzl0p
8VHpEv0v7db84czWMQ7ODnQC8x5wQURdZ+07nS9DuIlvkFKb8en87fg10QIDAQAB
AoGAPTRfpx6bXoNlO6tvl6k+G99JzRjA+czqDjvFpkQwZgimNLwKjW5Jg0RL6IJQ
j+654u97mx5P9zytczMRfO6S0RCd7Ba/bYzUr+zP3yAiZt1B71Iu+emOlrRtIglT
P/jee3Z3017Hqe1K0l/xu0F/a2cKKEMxBDwEvMn3jhkvumECQQDhxKMHavo+nDAc
YNrwE2VxWYhZApGVzsGzO8tgQ95IN/BlmYptGQPyssNNItWvbfF6EjB0rTwcMWF2
hCEoeg2bAkEA0Rjws4kGaP9jwOi7lEOKIrutv5Dfb6euioyvhDD/YxXt7YCijVwG
ATZLkVEiL8G0E5tvkMR7O4ho6hHft5V3AwJBAK9LIx4OVNCqKrzOAxAmrzwMPU6H
LQy5JTKJ+cX7zCocrN3mElHU+3jEjdllc66rWbPjTZY6L5LgUIFZ4/juk4MCQQCM
4x8b+VHGYX5XNvlc9v0WVhrGHtlOJE+orw58JX+OxfHgu3HLiZvKKUlVirNcNkod
g/fyNVFLVahLPuvciOr9AkEA1gzbg9q7kxKlFLlOYtowbLbMS/u8BUsaQJv1g05A
Yua6Wg8D4gr3/aNKQhLLXe7fHCAPs61n/KyD2aat8I2xBQ==
-----END RSA PRIVATE KEY-----
Certificate:
    Data:
        Version: 3 (0x2)
        Serial Number: 1 (0x1)
    Signature Algorithm: sha256WithRSAEncryption
        Issuer: C=GB, ST=Derbyshire, L=Derby, O=Mosquitto Project, OU=Testing, CN=Root CA
        Validity
            Not Before: Mar  1 18:53:36 2018 GMT
            Not After : Feb 28 18:53:36 2023 GMT
        Subject: C=GB, ST=Derbyshire, O=Mosquitto Project, OU=Testing, CN=Signing CA
        Subject Public Key Info:
            Public Key Algorithm: rsaEncryption
                Public-Key: (1024 bit)
                Modulus:
                    00:af:ad:b0:e4:78:b8:73:01:6a:9e:78:1e:bf:36:
                    5b:60:dc:ee:28:ce:16:3c:73:30:b3:02:cd:5c:07:
                    a2:36:ee:a1:c5:43:32:0c:46:57:cb:fb:1c:52:db:
                    4e:65:85:8a:5d:a6:cd:66:43:ad:bc:70:1b:e6:b0:
                    11:0f:d8:54:1f:57:9e:29:4e:2b:1b:c5:70:b2:3d:
                    38:a7:63:3f:1a:06:2f:6d:09:2c:7c:90:60:db:8c:
                    3a:11:20:a7:db:20:25:d9:c6:97:74:50:5a:e0:fd:
                    81:aa:de:ea:1d:e5:be:61:59:0d:76:e5:ab:7f:3b:
                    b2:a6:38:b9:bb:32:aa:72:ef
                Exponent: 65537 (0x10001)
        X509v3 extensions:
            X509v3 Subject Key Identifier: 
                9E:54:3E:E5:2F:E5:EA:40:4A:FC:37:96:6C:45:BB:1A:79:0E:CA:AB
            X509v3 Authority Key Identifier: 
                keyid:1C:B4:4E:8B:84:0D:1E:0F:C4:CC:F4:17:87:DB:CA:F2:55:F1:34:39

            X509v3 Basic Constraints: 
                CA:TRUE
    Signature Algorithm: sha256WithRSAEncryption
         6c:2d:41:ca:7b:89:84:27:ca:b3:64:d5:73:b2:5b:dd:fc:6f:
         d4:68:ae:f1:30:3e:9e:ca:28:2b:d3:2e:0c:61:3e:d5:9a:fd:
         67:b1:60:e5:54:9f:a4:95:51:5b:00:2d:f9:46:82:de:49:df:
         ce:2a:f3:f6:2e:8f:8f:64:2b:c9:2f:ce:ff:d2:53:a0:0a:c4:
         4a:e9:20:fa:5e:79:45:21:18:c2:d6:c1:64:92:e4:67:3a:92:
         04:46:5e:6a:39:84:c8:f1:0e:42:3c:fd:b2:c2:7b:e9:af:44:
         2c:19:30:61:01:39:47:6d:38:85:90:4b:e5:04:f4:87:72:46:
         4a:9a
-----BEGIN CERTIFICATE-----
MIICnTCCAgagAwIBAgIBATANBgkqhkiG9w0BAQsFADByMQswCQYDVQQGEwJHQjET
MBEGA1UECAwKRGVyYnlzaGlyZTEOMAwGA1UEBwwFRGVyYnkxGjAYBgNVBAoMEU1v
c3F1aXR0byBQcm9qZWN0MRAwDgYDVQQLDAdUZXN0aW5nMRAwDgYDVQQDDAdSb290
IENBMB4XDTE4MDMwMTE4NTMzNloXDTIzMDIyODE4NTMzNlowZTELMAkGA1UEBhMC
R0IxEzARBgNVBAgMCkRlcmJ5c2hpcmUxGjAYBgNVBAoMEU1vc3F1aXR0byBQcm9q
ZWN0MRAwDgYDVQQLDAdUZXN0aW5nMRMwEQYDVQQDDApTaWduaW5nIENBMIGfMA0G
CSqGSIb3DQEBAQUAA4GNADCBiQKBgQCvrbDkeLhzAWqeeB6/Nltg3O4ozhY8czCz
As1cB6I27qHFQzIMRlfL+xxS205lhYpdps1mQ628cBvmsBEP2FQfV54pTisbxXCy
PTinYz8aBi9tCSx8kGDbjDoRIKfbICXZxpd0UFrg/YGq3uod5b5hWQ125at/O7Km
OLm7Mqpy7wIDAQABo1AwTjAdBgNVHQ4EFgQUnlQ+5S/l6kBK/DeWbEW7GnkOyqsw
HwYDVR0jBBgwFoAUHLROi4QNHg/EzPQXh9vK8lXxNDkwDAYDVR0TBAUwAwEB/zAN
BgkqhkiG9w0BAQsFAAOBgQBsLUHKe4mEJ8qzZNVzslvd/G/UaK7xMD6eyigr0y4M
YT7Vmv1nsWDlVJ+klVFbAC35RoLeSd/OKvP2Lo+PZCvJL87/0lOgCsRK6SD6XnlF
IRjC1sFkkuRnOpIERl5qOYTI8Q5CPP2ywnvpr0QsGTBhATlHbTiFkEvlBPSHckZK
mg==
-----END CERTIFICATE-----
-----BEGIN CERTIFICATE-----
MIICtDCCAh2gAwIBAgIJAObVjC0tPL4iMA0GCSqGSIb3DQEBCwUAMHIxCzAJBgNV
BAYTAkdCMRMwEQYDVQQIDApEZXJieXNoaXJlMQ4wDAYDVQQHDAVEZXJieTEaMBgG
A1UECgwRTW9zcXVpdHRvIFByb2plY3QxEDAOBgNVBAsMB1Rlc3RpbmcxEDAOBgNV
BAMMB1Jvb3QgQ0EwIBcNMTgwMzAxMTg1MzM2WhgPMjEwMDA0MjAxODUzMzZaMHIx
CzAJBgNVBAYTAkdCMRMwEQYDVQQIDApEZXJieXNoaXJlMQ4wDAYDVQQHDAVEZXJi
eTEaMBgGA1UECgwRTW9zcXVpdHRvIFByb2plY3QxEDAOBgNVBAsMB1Rlc3Rpbmcx
EDAOBgNVBAMMB1Jvb3QgQ0EwgZ8wDQYJKoZIhvcNAQEBBQADgY0AMIGJAoGBANSZ
3aRYdHcnta24XXJGfomsg2OpYys3KkqK76aWEwhqRvdH2m54yBvHTZ2LsMLQro0q
r4oGLyvlupC9fxwQF4ZDFHrn7VbxU947V+cipGkRaECXiGVO1ngUSpKti8nrIUkn
FXkLmVaGuVv1jVOGBi6/6f3ct6LsNyFqXzaSw9DtAgMBAAGjUDBOMB0GA1UdDgQW
BBQctE6LhA0eD8TM9BeH28ryVfE0OTAfBgNVHSMEGDAWgBQctE6LhA0eD8TM9BeH
28ryVfE0OTAMBgNVHRMEBTADAQH/MA0GCSqGSIb3DQEBCwUAA4GBAHVShEeqQRjP
IoMU8MFnnC1ZadADvSn1E6gRR7eoNU0MeMpTYmTA+TIklEzhaRHSkQqyPHAe/YMl
WLmq1NqyxPv9uKekVlatJxYbm1ME4e+wGs3U9OGsIKX0nFcBO8iqpj5s7GZmSYyY
u1YJnq1oe0C5IblVB9amcoB743/YyMme
-----END CERTIFICATE-----
