Certificate:
    Data:
        Version: 3 (0x2)
        Serial Number: 2 (0x2)
        Signature Algorithm: sha256WithRSAEncryption
        Issuer: C=GB, ST=Wiltshire, O=Paho Project, OU=Testing, CN=Signing CA
        Validity
            Not Before: Apr 13 13:22:40 2023 GMT
            Not After : Apr 11 13:22:40 2028 GMT
        Subject: C=GB, ST=Wiltshire, L=Salisbury, O=Paho Project, OU=Production, CN=test client
        Subject Public Key Info:
            Public Key Algorithm: rsaEncryption
                RSA Public-Key: (2048 bit)
                Modulus:
                    00:c9:03:bc:43:8e:1e:2e:cd:ac:4a:33:2f:99:fc:
                    de:9b:43:ff:c3:c2:ca:ab:de:a8:e2:10:1b:86:d2:
                    51:ef:71:26:1f:7c:0e:5c:5b:5d:e7:1e:62:25:eb:
                    db:1f:7a:7f:c8:87:3b:79:38:b4:0b:e6:8e:43:8b:
                    8b:3a:e8:85:0a:2f:77:13:80:cb:1b:86:30:ff:7f:
                    f9:a2:70:68:5e:0b:dd:7f:4b:7d:f4:82:2b:39:5d:
                    43:cd:fd:d9:38:be:4e:4f:0f:5d:5c:f6:cc:49:95:
                    d5:b4:d5:a1:56:93:38:1d:62:5e:58:f3:90:3c:44:
                    1e:3d:85:2b:0f:9f:4f:9e:9a:e3:b1:4b:18:a8:e1:
                    05:6b:88:c5:ea:bf:a6:85:b9:3c:9f:02:ad:83:31:
                    09:5e:e3:a2:b1:78:6b:bc:b2:d1:05:f5:22:3a:90:
                    a5:1c:0f:b5:94:aa:29:aa:7d:c8:ee:f5:3a:8f:2c:
                    32:42:e1:c0:ec:8f:a8:73:ca:38:17:05:c9:c0:ce:
                    e2:c4:40:68:0b:4f:86:fb:1b:35:9c:4e:69:81:4f:
                    c8:cf:09:06:eb:ed:3a:f6:46:86:4f:91:f8:35:be:
                    3c:ca:03:a4:0f:3d:75:56:d1:93:7f:a2:d2:32:38:
                    df:02:ac:2b:ff:a1:94:a4:80:b7:9f:ca:9e:51:0f:
                    1a:bb
                Exponent: 65537 (0x10001)
        X509v3 extensions:
            X509v3 Basic Constraints: 
                CA:FALSE
            Netscape Comment: 
                OpenSSL Generated Certificate
            X509v3 Subject Key Identifier: 
                DF:C7:7A:E1:90:8C:51:CB:9F:32:43:B0:A6:60:E8:FB:A0:79:6E:F0
            X509v3 Authority Key Identifier: 
                keyid:E1:BE:F5:5F:36:50:CF:FE:3D:42:EE:80:33:22:46:C2:3D:2A:41:41

    Signature Algorithm: sha256WithRSAEncryption
         5b:94:99:5f:8d:97:69:31:9d:ea:3d:e1:a5:a8:75:4c:1a:ef:
         c0:cb:b1:92:a6:19:c4:a1:25:12:2f:64:3c:af:6d:d4:48:b8:
         77:e8:29:4b:5a:6a:50:65:85:c7:ba:22:a5:9c:24:93:75:fc:
         3e:ee:81:23:a4:89:da:89:4c:54:3b:02:8f:2d:de:dd:85:df:
         11:ac:26:b5:e6:b5:d9:82:21:28:90:3c:45:42:fe:7a:0a:ba:
         46:6c:8f:05:1d:ff:6f:c6:47:16:04:f3:4b:b3:e2:82:a2:3b:
         97:71:78:0b:12:19:db:a4:fc:2f:e1:ce:2b:b1:b6:8b:1b:30:
         69:6a:b0:16:2e:2a:c1:a1:d5:69:ab:b2:b4:95:e1:8f:bf:dc:
         4e:33:7d:06:8c:2b:37:ca:d9:c2:49:b4:4b:ec:32:ac:f1:12:
         80:c9:08:02:67:d9:f8:90:62:d9:27:4d:14:67:7b:09:bb:bc:
         56:8a:68:57:d5:6b:4f:df:00:14:0a:69:45:fc:30:5f:88:3a:
         37:b8:55:8f:a6:8e:fe:48:d8:1b:25:4b:e8:c1:16:84:26:5b:
         e5:0b:ba:96:11:a0:db:b2:68:57:a9:55:f3:a8:03:65:82:da:
         9d:40:19:73:8f:d6:ab:98:fa:26:15:27:da:46:ab:29:df:a9:
         61:8b:55:2d
-----BEGIN CERTIFICATE-----
MIIDzDCCArSgAwIBAgIBAjANBgkqhkiG9w0BAQsFADBfMQswCQYDVQQGEwJHQjES
MBAGA1UECAwJV2lsdHNoaXJlMRUwEwYDVQQKDAxQYWhvIFByb2plY3QxEDAOBgNV
BAsMB1Rlc3RpbmcxEzARBgNVBAMMClNpZ25pbmcgQ0EwHhcNMjMwNDEzMTMyMjQw
WhcNMjgwNDExMTMyMjQwWjB3MQswCQYDVQQGEwJHQjESMBAGA1UECAwJV2lsdHNo
aXJlMRIwEAYDVQQHDAlTYWxpc2J1cnkxFTATBgNVBAoMDFBhaG8gUHJvamVjdDET
MBEGA1UECwwKUHJvZHVjdGlvbjEUMBIGA1UEAwwLdGVzdCBjbGllbnQwggEiMA0G
CSqGSIb3DQEBAQUAA4IBDwAwggEKAoIBAQDJA7xDjh4uzaxKMy+Z/N6bQ//Dwsqr
3qjiEBuG0lHvcSYffA5cW13nHmIl69sfen/Ihzt5OLQL5o5Di4s66IUKL3cTgMsb
hjD/f/micGheC91/S330gis5XUPN/dk4vk5PD11c9sxJldW01aFWkzgdYl5Y85A8
RB49hSsPn0+emuOxSxio4QVriMXqv6aFuTyfAq2DMQle46KxeGu8stEF9SI6kKUc
D7WUqimqfcju9TqPLDJC4cDsj6hzyjgXBcnAzuLEQGgLT4b7GzWcTmmBT8jPCQbr
7Tr2RoZPkfg1vjzKA6QPPXVW0ZN/otIyON8CrCv/oZSkgLefyp5RDxq7AgMBAAGj
ezB5MAkGA1UdEwQCMAAwLAYJYIZIAYb4QgENBB8WHU9wZW5TU0wgR2VuZXJhdGVk
IENlcnRpZmljYXRlMB0GA1UdDgQWBBTfx3rhkIxRy58yQ7CmYOj7oHlu8DAfBgNV
HSMEGDAWgBThvvVfNlDP/j1C7oAzIkbCPSpBQTANBgkqhkiG9w0BAQsFAAOCAQEA
W5SZX42XaTGd6j3hpah1TBrvwMuxkqYZxKElEi9kPK9t1Ei4d+gpS1pqUGWFx7oi
pZwkk3X8Pu6BI6SJ2olMVDsCjy3e3YXfEawmtea12YIhKJA8RUL+egq6RmyPBR3/
b8ZHFgTzS7PigqI7l3F4CxIZ26T8L+HOK7G2ixswaWqwFi4qwaHVaauytJXhj7/c
TjN9BowrN8rZwkm0S+wyrPESgMkIAmfZ+JBi2SdNFGd7Cbu8VopoV9VrT98AFApp
RfwwX4g6N7hVj6aO/kjYGyVL6MEWhCZb5Qu6lhGg27JoV6lV86gDZYLanUAZc4/W
q5j6JhUn2karKd+pYYtVLQ==
-----END CERTIFICATE-----
