Certificate:
    Data:
        Version: 3 (0x2)
        Serial Number:
            bf:d0:e6:9a:27:0f:16:9d
        Signature Algorithm: sha1WithRSAEncryption
        Issuer: C=CA, ST=Ontario, L=Ottawa, O=Eclipse Foundation, Inc, OU=Paho, CN=Paho/emailAddress=icraggs@modelbasedtesting.co.uk
        Validity
            Not Before: Aug  9 12:45:56 2013 GMT
            Not After : Jul  6 12:45:56 4751 GMT
        Subject: C=CA, ST=Ontario, L=Ottawa, O=Eclipse Foundation, Inc, OU=Paho, CN=Paho/emailAddress=icraggs@modelbasedtesting.co.uk
        Subject Public Key Info:
            Public Key Algorithm: rsaEncryption
                Public-Key: (2048 bit)
                Modulus:
                    00:b2:ef:ff:a1:56:c6:eb:99:01:72:4b:e2:50:7c:
                    23:d7:92:c4:79:9f:1e:d9:ff:d4:94:e4:2c:b7:6a:
                    2e:c9:65:80:05:95:82:31:a4:ce:dc:6d:a7:50:bb:
                    7e:10:dc:72:2f:b7:88:d7:4b:47:d6:52:fb:f9:41:
                    60:c7:c3:c8:9b:53:3c:39:ef:47:53:7f:26:56:12:
                    52:4c:9a:c1:05:59:04:51:12:10:1e:13:1d:2d:81:
                    78:42:51:f2:5c:32:a1:7a:a7:6c:a7:85:c8:df:45:
                    67:b1:5a:b6:b4:78:22:4e:fe:d4:b6:c4:70:65:67:
                    11:37:2d:e9:46:b8:92:ca:08:dd:fa:65:f9:e1:98:
                    6e:c5:b1:79:f2:43:87:ae:a9:6a:88:03:80:00:ce:
                    d9:60:e9:07:55:a6:e2:43:9a:2b:8c:19:94:7b:4f:
                    15:1a:77:26:5c:c5:51:f8:56:d5:1a:fd:4f:3d:7c:
                    2d:3e:74:9c:87:86:ef:6d:6a:82:8d:c9:9a:68:c7:
                    96:6d:3c:60:bf:18:6d:ad:d8:e1:67:60:8d:91:87:
                    64:6d:e3:f3:1f:42:73:28:04:8d:6d:54:d1:a5:9f:
                    b9:ae:71:a1:37:e9:89:8d:2e:14:a7:04:ac:2d:bd:
                    11:95:ae:03:f4:6f:a9:2c:2b:56:1a:67:a4:40:84:
                    31:0f
                Exponent: 65537 (0x10001)
        X509v3 extensions:
            X509v3 Subject Key Identifier: 
                4C:7B:16:36:65:4D:CD:A3:41:9F:C8:42:3E:71:59:F2:87:92:A0:CB
            X509v3 Authority Key Identifier: 
                keyid:4C:7B:16:36:65:4D:CD:A3:41:9F:C8:42:3E:71:59:F2:87:92:A0:CB

            X509v3 Basic Constraints: 
                CA:TRUE
    Signature Algorithm: sha1WithRSAEncryption
        8f:37:a6:31:d0:f6:76:bb:bb:1b:85:70:f9:4f:74:54:2f:14:
        2d:e3:69:8e:35:1c:0c:b8:c2:4a:3f:2b:b2:34:2b:64:55:1e:
        a1:30:ec:0f:b9:c2:d5:49:4b:c4:09:7a:8f:6e:de:d3:6e:c4:
        7a:1a:14:b4:45:78:09:4f:f2:7c:ec:35:db:47:39:b3:27:11:
        96:dc:74:f4:60:aa:0c:91:7b:a1:8b:0b:8d:8a:55:66:5b:a5:
        7f:42:2c:c2:dc:ae:53:f9:ca:5d:24:c8:78:4d:77:a0:be:14:
        0f:ed:ea:41:bc:8e:1d:5b:51:cd:66:f6:8f:0f:5a:d8:f8:e5:
        ac:74:af:0b:1d:bc:41:a3:04:aa:28:69:64:e2:cd:d0:47:4a:
        46:0e:7c:25:4e:b4:16:bb:d4:b3:b1:90:6a:47:39:f5:c6:37:
        b7:2a:50:87:b4:2c:fc:3b:4d:76:98:ca:ab:2e:7d:15:ea:86:
        f4:52:b2:68:c4:c5:12:a7:06:d1:08:e8:37:a0:98:dd:ee:fe:
        a7:d5:3c:c7:e1:a4:de:ca:b6:7f:46:4e:1d:f2:04:4e:81:18:
        17:37:df:09:84:3f:74:f9:e7:d2:59:02:f8:f0:f6:5f:86:ba:
        19:a3:88:a7:25:32:3d:8d:e0:b9:43:24:1f:77:8b:0a:8c:30:
        56:a6:e7:43
-----BEGIN CERTIFICATE-----
MIIEFzCCAv+gAwIBAgIJAL/Q5ponDxadMA0GCSqGSIb3DQEBBQUAMIGgMQswCQYD
VQQGEwJDQTEQMA4GA1UECAwHT250YXJpbzEPMA0GA1UEBwwGT3R0YXdhMSAwHgYD
VQQKDBdFY2xpcHNlIEZvdW5kYXRpb24sIEluYzENMAsGA1UECwwEUGFobzENMAsG
A1UEAwwEUGFobzEuMCwGCSqGSIb3DQEJARYfaWNyYWdnc0Btb2RlbGJhc2VkdGVz
dGluZy5jby51azAgFw0xMzA4MDkxMjQ1NTZaGA80NzUxMDcwNjEyNDU1NlowgaAx
CzAJBgNVBAYTAkNBMRAwDgYDVQQIDAdPbnRhcmlvMQ8wDQYDVQQHDAZPdHRhd2Ex
IDAeBgNVBAoMF0VjbGlwc2UgRm91bmRhdGlvbiwgSW5jMQ0wCwYDVQQLDARQYWhv
MQ0wCwYDVQQDDARQYWhvMS4wLAYJKoZIhvcNAQkBFh9pY3JhZ2dzQG1vZGVsYmFz
ZWR0ZXN0aW5nLmNvLnVrMIIBIjANBgkqhkiG9w0BAQEFAAOCAQ8AMIIBCgKCAQEA
su//oVbG65kBckviUHwj15LEeZ8e2f/UlOQst2ouyWWABZWCMaTO3G2nULt+ENxy
L7eI10tH1lL7+UFgx8PIm1M8Oe9HU38mVhJSTJrBBVkEURIQHhMdLYF4QlHyXDKh
eqdsp4XI30VnsVq2tHgiTv7UtsRwZWcRNy3pRriSygjd+mX54ZhuxbF58kOHrqlq
iAOAAM7ZYOkHVabiQ5orjBmUe08VGncmXMVR+FbVGv1PPXwtPnSch4bvbWqCjcma
aMeWbTxgvxhtrdjhZ2CNkYdkbePzH0JzKASNbVTRpZ+5rnGhN+mJjS4UpwSsLb0R
la4D9G+pLCtWGmekQIQxDwIDAQABo1AwTjAdBgNVHQ4EFgQUTHsWNmVNzaNBn8hC
PnFZ8oeSoMswHwYDVR0jBBgwFoAUTHsWNmVNzaNBn8hCPnFZ8oeSoMswDAYDVR0T
BAUwAwEB/zANBgkqhkiG9w0BAQUFAAOCAQEAjzemMdD2dru7G4Vw+U90VC8ULeNp
jjUcDLjCSj8rsjQrZFUeoTDsD7nC1UlLxAl6j27e027EehoUtEV4CU/yfOw120c5
sycRltx09GCqDJF7oYsLjYpVZlulf0IswtyuU/nKXSTIeE13oL4UD+3qQbyOHVtR
zWb2jw9a2PjlrHSvCx28QaMEqihpZOLN0EdKRg58JU60FrvUs7GQakc59cY3typQ
h7Qs/DtNdpjKqy59FeqG9FKyaMTFEqcG0QjoN6CY3e7+p9U8x+Gk3sq2f0ZOHfIE
ToEYFzffCYQ/dPnn0lkC+PD2X4a6GaOIpyUyPY3guUMkH3eLCowwVqbnQw==
-----END CERTIFICATE-----
Certificate:
    Data:
        Version: 1 (0x0)
        Serial Number:
            d6:42:cb:ae:91:77:56:b6
        Signature Algorithm: sha1WithRSAEncryption
        Issuer: C=CA, ST=Ontario, L=Ottawa, O=Eclipse Foundation, Inc, OU=Paho, CN=Paho/emailAddress=icraggs@modelbasedtesting.co.uk
        Validity
            Not Before: Aug  9 12:48:22 2013 GMT
            Not After : Jul  6 12:48:22 4751 GMT
        Subject: C=UK, ST=England, L=Salisbury, CN=Ian Craggs/emailAddress=icraggs@modelbasedtesting.co.uk
        Subject Public Key Info:
            Public Key Algorithm: rsaEncryption
                Public-Key: (2048 bit)
                Modulus:
                    00:cc:e4:31:36:31:bb:30:7c:16:a4:9b:d8:71:e6:
                    63:5a:3f:59:ba:11:9a:31:11:d6:5f:94:34:3d:45:
                    da:10:23:57:ac:91:75:23:fc:e6:b4:37:27:47:bf:
                    96:8b:6a:20:44:50:67:9d:4b:a6:46:f8:bc:28:77:
                    b8:65:e7:a5:e8:e9:01:e4:7f:a9:f4:b4:f6:9d:ef:
                    f4:bf:b0:b3:88:08:27:20:8a:0f:6c:fa:be:f0:e3:
                    51:bb:db:ed:83:b4:e2:89:d8:06:f1:55:32:4a:bd:
                    43:ca:14:92:84:20:05:36:47:c8:d7:db:ca:2d:29:
                    cb:24:ae:39:76:51:10:fc:08:a0:fe:5c:d7:df:6e:
                    23:97:f4:bd:2d:8d:ea:57:97:78:03:1f:c2:ea:b5:
                    c0:32:bc:7a:60:b4:37:8f:92:fe:cd:1e:0f:1e:85:
                    d2:ae:34:64:55:31:09:71:c0:a5:f6:b0:e5:3b:21:
                    2d:79:d4:e7:f0:8d:8f:1f:c9:70:fa:9f:e3:f9:31:
                    4e:c3:3c:d7:85:c6:08:20:03:bc:da:a4:36:8f:13:
                    4f:9f:69:84:c9:41:70:24:70:de:33:01:17:19:58:
                    3c:9f:cf:4c:a4:bd:28:ff:2b:16:6b:db:c6:05:2d:
                    5a:1e:5d:e3:86:e7:9b:14:31:70:e2:0a:02:9b:f5:
                    3d:e3
                Exponent: 65537 (0x10001)
    Signature Algorithm: sha1WithRSAEncryption
        75:4a:4b:e8:68:44:02:81:fa:5f:35:6a:45:61:32:85:76:0f:
        ba:95:3a:02:7d:4f:63:96:a8:54:69:b2:fe:f9:ba:14:ed:31:
        4e:c8:f1:25:ba:eb:75:cf:85:11:b8:80:60:de:9e:90:99:a1:
        0d:7e:2e:d8:79:47:3a:25:d8:ba:32:5f:7f:be:73:93:f0:2d:
        10:ad:0a:ea:5b:13:a3:fa:5d:18:c3:81:79:9d:84:aa:f4:4b:
        0c:a2:7b:9c:1a:dd:92:38:f7:53:c0:b9:e6:4c:c8:a1:4b:53:
        2e:0b:a3:27:6f:5c:9d:a1:09:75:4f:6e:a4:f1:93:bc:fd:22:
        69:31:87:31:3d:6f:c4:c5:ee:98:d1:df:22:c9:71:3a:7f:c4:
        0d:59:a6:27:68:6d:f6:2b:28:17:cd:37:c3:68:04:e5:6b:a7:
        8a:2a:02:33:21:a2:fa:5e:fc:8c:e6:d6:51:75:62:24:70:81:
        50:42:e6:01:86:f8:34:dc:ac:2d:6b:f0:f3:ac:1a:28:f4:af:
        34:9f:ba:ae:9e:c9:15:cc:8e:32:bb:a4:1a:56:6b:af:56:e5:
        10:b1:d7:81:7e:1d:dd:e4:77:0c:6b:49:8c:b5:91:49:ef:f8:
        19:9d:f9:93:4a:8c:92:1e:f7:6a:dd:51:09:90:01:85:d1:15:
        11:cd:4f:ab
-----BEGIN CERTIFICATE-----
MIIDlzCCAn8CCQDWQsuukXdWtjANBgkqhkiG9w0BAQUFADCBoDELMAkGA1UEBhMC
Q0ExEDAOBgNVBAgMB09udGFyaW8xDzANBgNVBAcMBk90dGF3YTEgMB4GA1UECgwX
RWNsaXBzZSBGb3VuZGF0aW9uLCBJbmMxDTALBgNVBAsMBFBhaG8xDTALBgNVBAMM
BFBhaG8xLjAsBgkqhkiG9w0BCQEWH2ljcmFnZ3NAbW9kZWxiYXNlZHRlc3Rpbmcu
Y28udWswIBcNMTMwODA5MTI0ODIyWhgPNDc1MTA3MDYxMjQ4MjJaMHgxCzAJBgNV
BAYTAlVLMRAwDgYDVQQIDAdFbmdsYW5kMRIwEAYDVQQHDAlTYWxpc2J1cnkxEzAR
BgNVBAMMCklhbiBDcmFnZ3MxLjAsBgkqhkiG9w0BCQEWH2ljcmFnZ3NAbW9kZWxi
YXNlZHRlc3RpbmcuY28udWswggEiMA0GCSqGSIb3DQEBAQUAA4IBDwAwggEKAoIB
AQDM5DE2MbswfBakm9hx5mNaP1m6EZoxEdZflDQ9RdoQI1eskXUj/Oa0NydHv5aL
aiBEUGedS6ZG+Lwod7hl56Xo6QHkf6n0tPad7/S/sLOICCcgig9s+r7w41G72+2D
tOKJ2AbxVTJKvUPKFJKEIAU2R8jX28otKcskrjl2URD8CKD+XNffbiOX9L0tjepX
l3gDH8LqtcAyvHpgtDePkv7NHg8ehdKuNGRVMQlxwKX2sOU7IS151OfwjY8fyXD6
n+P5MU7DPNeFxgggA7zapDaPE0+faYTJQXAkcN4zARcZWDyfz0ykvSj/KxZr28YF
LVoeXeOG55sUMXDiCgKb9T3jAgMBAAEwDQYJKoZIhvcNAQEFBQADggEBAHVKS+ho
RAKB+l81akVhMoV2D7qVOgJ9T2OWqFRpsv75uhTtMU7I8SW663XPhRG4gGDenpCZ
oQ1+Lth5Rzol2LoyX3++c5PwLRCtCupbE6P6XRjDgXmdhKr0Swyie5wa3ZI491PA
ueZMyKFLUy4LoydvXJ2hCXVPbqTxk7z9ImkxhzE9b8TF7pjR3yLJcTp/xA1Zpido
bfYrKBfNN8NoBOVrp4oqAjMhovpe/Izm1lF1YiRwgVBC5gGG+DTcrC1r8POsGij0
rzSfuq6eyRXMjjK7pBpWa69W5RCx14F+Hd3kdwxrSYy1kUnv+Bmd+ZNKjJIe92rd
UQmQAYXRFRHNT6s=
-----END CERTIFICATE-----
-----BEGIN PRIVATE KEY-----
MIIEwAIBADANBgkqhkiG9w0BAQEFAASCBKowggSmAgEAAoIBAQDM5DE2MbswfBak
m9hx5mNaP1m6EZoxEdZflDQ9RdoQI1eskXUj/Oa0NydHv5aLaiBEUGedS6ZG+Lwo
d7hl56Xo6QHkf6n0tPad7/S/sLOICCcgig9s+r7w41G72+2DtOKJ2AbxVTJKvUPK
FJKEIAU2R8jX28otKcskrjl2URD8CKD+XNffbiOX9L0tjepXl3gDH8LqtcAyvHpg
tDePkv7NHg8ehdKuNGRVMQlxwKX2sOU7IS151OfwjY8fyXD6n+P5MU7DPNeFxggg
A7zapDaPE0+faYTJQXAkcN4zARcZWDyfz0ykvSj/KxZr28YFLVoeXeOG55sUMXDi
CgKb9T3jAgMBAAECggEBAMLH4JzTtE/Id8IvQhot2p+t///qwfoKKhEdFHh3knGr
F6s/cOwwfaYvlJEZ6uVIk7o98fLQOxfXWRDjl5KRIOGFub3fO9QdwSGuP6+ILXSR
w5ikhzukOKdKg6Yi0u5VpNNEYn1E8BWrTemrmwouYqYSojXLha1fwPZzBr+bG5ls
ahEUkWQR/4eJ4iPvt3J4cO03S5F+8zI9/nfEXabsxNnOZD5UKuIBJaEu8yjQWr5P
K7uJqowFEpAklhlnfVb+JHIzWtua+sl20g4hoq1e9q4UO8j3n9IxANxKW/0L0xhv
R8F6AbTrH1UZ5wkM2vTcYcBmRprqeUy/ZvFjMiDB3bkCgYEA9bZq+VMCiN5xCzNE
p7nqt0UVjjaLhLPSfC2WOYCipErOZA734IXs4oik1zE00jtjm3ufImfwyS4x/Trs
QhR/SL/5HeskCVJ13uGCYG7BHjDvFDYruCC67r4O0953K8oOdI4snVzd9BX+6vB+
kCks2iTKo2/7ftyP8yq/5yhO8L8CgYEA1Xg/PSvCf38dxzJxnNbpuEqo24QGxwwa
5AOp3yl13ujO2Sf32nCUj0ElHRaAVQE3UDAg62uAK++MHbzzioKYITxNUZvsBkYC
rjsGu/iRFZxHBvjKQKNpFc09z4JI0xg374DlAJ4k5tTk1oAxTEmGUEh/9GbgyPot
tuSU9kUh190CgYEAhBD1NGc6kIhG6Ec5GpGiJ7lZGaQVn1DrzFTQTr3mLToL7tng
v2wcY7IgL43CH1FOe26ZnOuTDv7mXX6DKA1OULLmWf9d0ijhM9evtNcys2CH0CxB
mWj2MIY1AAmtsfqbhGg6cKZOofgEmRCEZkXLVsC5rdjtq0UvlfqfRMZ0j48CgYEA
mvJnZK1oxkashLRWxzMv/rcijgPtL3nX4v3NxdBAYIa37eQXAhWJn9n3aH+2svzo
+2mT243yQPHl0Iggdr+IUUeGD+CPl5Ylx/XMU5B/LyJ6Y9Mea4CxfEO3w/Gbjq4b
m9sBXktsGakaWaA/KFKODaQyTGKIcxk1KXYNshxIDnkCgYEAuqMBohQViDDubWB/
1pZHkyYzjhrpD42UjsdWprTLeXb4ZOrM+Oc2HT3qkPiqW0M+sidJV9sqib0/0MKL
mrex5nxbnPfqpFobr3G2ZUT4JFFuT7AoQ3gvNbR7vQKfKWAeL6hnLlBXb37sA0Z2
gZ/mme8VKHmT4L1l0JAkPFwNA4I=
-----END PRIVATE KEY-----
Private-Key: (2048 bit)
modulus:
    00:cc:e4:31:36:31:bb:30:7c:16:a4:9b:d8:71:e6:
    63:5a:3f:59:ba:11:9a:31:11:d6:5f:94:34:3d:45:
    da:10:23:57:ac:91:75:23:fc:e6:b4:37:27:47:bf:
    96:8b:6a:20:44:50:67:9d:4b:a6:46:f8:bc:28:77:
    b8:65:e7:a5:e8:e9:01:e4:7f:a9:f4:b4:f6:9d:ef:
    f4:bf:b0:b3:88:08:27:20:8a:0f:6c:fa:be:f0:e3:
    51:bb:db:ed:83:b4:e2:89:d8:06:f1:55:32:4a:bd:
    43:ca:14:92:84:20:05:36:47:c8:d7:db:ca:2d:29:
    cb:24:ae:39:76:51:10:fc:08:a0:fe:5c:d7:df:6e:
    23:97:f4:bd:2d:8d:ea:57:97:78:03:1f:c2:ea:b5:
    c0:32:bc:7a:60:b4:37:8f:92:fe:cd:1e:0f:1e:85:
    d2:ae:34:64:55:31:09:71:c0:a5:f6:b0:e5:3b:21:
    2d:79:d4:e7:f0:8d:8f:1f:c9:70:fa:9f:e3:f9:31:
    4e:c3:3c:d7:85:c6:08:20:03:bc:da:a4:36:8f:13:
    4f:9f:69:84:c9:41:70:24:70:de:33:01:17:19:58:
    3c:9f:cf:4c:a4:bd:28:ff:2b:16:6b:db:c6:05:2d:
    5a:1e:5d:e3:86:e7:9b:14:31:70:e2:0a:02:9b:f5:
    3d:e3
publicExponent: 65537 (0x10001)
privateExponent:
    00:c2:c7:e0:9c:d3:b4:4f:c8:77:c2:2f:42:1a:2d:
    da:9f:ad:ff:ff:ea:c1:fa:0a:2a:11:1d:14:78:77:
    92:71:ab:17:ab:3f:70:ec:30:7d:a6:2f:94:91:19:
    ea:e5:48:93:ba:3d:f1:f2:d0:3b:17:d7:59:10:e3:
    97:92:91:20:e1:85:b9:bd:df:3b:d4:1d:c1:21:ae:
    3f:af:88:2d:74:91:c3:98:a4:87:3b:a4:38:a7:4a:
    83:a6:22:d2:ee:55:a4:d3:44:62:7d:44:f0:15:ab:
    4d:e9:ab:9b:0a:2e:62:a6:12:a2:35:cb:85:ad:5f:
    c0:f6:73:06:bf:9b:1b:99:6c:6a:11:14:91:64:11:
    ff:87:89:e2:23:ef:b7:72:78:70:ed:37:4b:91:7e:
    f3:32:3d:fe:77:c4:5d:a6:ec:c4:d9:ce:64:3e:54:
    2a:e2:01:25:a1:2e:f3:28:d0:5a:be:4f:2b:bb:89:
    aa:8c:05:12:90:24:96:19:67:7d:56:fe:24:72:33:
    5a:db:9a:fa:c9:76:d2:0e:21:a2:ad:5e:f6:ae:14:
    3b:c8:f7:9f:d2:31:00:dc:4a:5b:fd:0b:d3:18:6f:
    47:c1:7a:01:b4:eb:1f:55:19:e7:09:0c:da:f4:dc:
    61:c0:66:46:9a:ea:79:4c:bf:66:f1:63:32:20:c1:
    dd:b9
prime1:
    00:f5:b6:6a:f9:53:02:88:de:71:0b:33:44:a7:b9:
    ea:b7:45:15:8e:36:8b:84:b3:d2:7c:2d:96:39:80:
    a2:a4:4a:ce:64:0e:f7:e0:85:ec:e2:88:a4:d7:31:
    34:d2:3b:63:9b:7b:9f:22:67:f0:c9:2e:31:fd:3a:
    ec:42:14:7f:48:bf:f9:1d:eb:24:09:52:75:de:e1:
    82:60:6e:c1:1e:30:ef:14:36:2b:b8:20:ba:ee:be:
    0e:d3:de:77:2b:ca:0e:74:8e:2c:9d:5c:dd:f4:15:
    fe:ea:f0:7e:90:29:2c:da:24:ca:a3:6f:fb:7e:dc:
    8f:f3:2a:bf:e7:28:4e:f0:bf
prime2:
    00:d5:78:3f:3d:2b:c2:7f:7f:1d:c7:32:71:9c:d6:
    e9:b8:4a:a8:db:84:06:c7:0c:1a:e4:03:a9:df:29:
    75:de:e8:ce:d9:27:f7:da:70:94:8f:41:25:1d:16:
    80:55:01:37:50:30:20:eb:6b:80:2b:ef:8c:1d:bc:
    f3:8a:82:98:21:3c:4d:51:9b:ec:06:46:02:ae:3b:
    06:bb:f8:91:15:9c:47:06:f8:ca:40:a3:69:15:cd:
    3d:cf:82:48:d3:18:37:ef:80:e5:00:9e:24:e6:d4:
    e4:d6:80:31:4c:49:86:50:48:7f:f4:66:e0:c8:fa:
    2d:b6:e4:94:f6:45:21:d7:dd
exponent1:
    00:84:10:f5:34:67:3a:90:88:46:e8:47:39:1a:91:
    a2:27:b9:59:19:a4:15:9f:50:eb:cc:54:d0:4e:bd:
    e6:2d:3a:0b:ee:d9:e0:bf:6c:1c:63:b2:20:2f:8d:
    c2:1f:51:4e:7b:6e:99:9c:eb:93:0e:fe:e6:5d:7e:
    83:28:0d:4e:50:b2:e6:59:ff:5d:d2:28:e1:33:d7:
    af:b4:d7:32:b3:60:87:d0:2c:41:99:68:f6:30:86:
    35:00:09:ad:b1:fa:9b:84:68:3a:70:a6:4e:a1:f8:
    04:99:10:84:66:45:cb:56:c0:b9:ad:d8:ed:ab:45:
    2f:95:fa:9f:44:c6:74:8f:8f
exponent2:
    00:9a:f2:67:64:ad:68:c6:46:ac:84:b4:56:c7:33:
    2f:fe:b7:22:8e:03:ed:2f:79:d7:e2:fd:cd:c5:d0:
    40:60:86:b7:ed:e4:17:02:15:89:9f:d9:f7:68:7f:
    b6:b2:fc:e8:fb:69:93:db:8d:f2:40:f1:e5:d0:88:
    20:76:bf:88:51:47:86:0f:e0:8f:97:96:25:c7:f5:
    cc:53:90:7f:2f:22:7a:63:d3:1e:6b:80:b1:7c:43:
    b7:c3:f1:9b:8e:ae:1b:9b:db:01:5e:4b:6c:19:a9:
    1a:59:a0:3f:28:52:8e:0d:a4:32:4c:62:88:73:19:
    35:29:76:0d:b2:1c:48:0e:79
coefficient:
    00:ba:a3:01:a2:14:15:88:30:ee:6d:60:7f:d6:96:
    47:93:26:33:8e:1a:e9:0f:8d:94:8e:c7:56:a6:b4:
    cb:79:76:f8:64:ea:cc:f8:e7:36:1d:3d:ea:90:f8:
    aa:5b:43:3e:b2:27:49:57:db:2a:89:bd:3f:d0:c2:
    8b:9a:b7:b1:e6:7c:5b:9c:f7:ea:a4:5a:1b:af:71:
    b6:65:44:f8:24:51:6e:4f:b0:28:43:78:2f:35:b4:
    7b:bd:02:9f:29:60:1e:2f:a8:67:2e:50:57:6f:7e:
    ec:03:46:76:81:9f:e6:99:ef:15:28:79:93:e0:bd:
    65:d0:90:24:3c:5c:0d:03:82
