Certificate:
    Data:
        Version: 3 (0x2)
        Serial Number: 1 (0x1)
    Signature Algorithm: sha256WithRSAEncryption
        Issuer: C=GB, ST=Derbyshire, O=Mosquitto Project, OU=Testing, CN=Signing CA
        Validity
            Not Before: Mar  1 18:53:44 2018 GMT
            Not After : Feb 28 18:53:44 2023 GMT
        Subject: C=GB, ST=Nottinghamshire, L=Nottingham, O=Server, OU=Production, CN=localhost
        Subject Public Key Info:
            Public Key Algorithm: rsaEncryption
                Public-Key: (1024 bit)
                Modulus:
                    00:c9:18:e1:6a:c4:45:58:0e:b7:65:3a:b8:6f:df:
                    0a:d8:5d:18:aa:40:08:d6:d5:79:fa:ca:79:6b:9e:
                    ce:55:85:c9:d5:4f:bb:7f:5a:81:c8:3c:5d:aa:ed:
                    7f:48:87:c2:f1:4c:62:00:c3:8d:9a:a3:c2:77:25:
                    c6:70:cc:ef:d1:8f:17:7d:1b:c3:ab:66:3e:90:f0:
                    44:e3:85:8b:77:86:21:b2:dd:0b:2c:ed:a0:16:a0:
                    16:63:49:b9:bb:90:45:44:f1:f7:1e:ad:57:1c:45:
                    a2:08:99:13:05:e3:13:76:ef:f3:cd:f3:3a:21:73:
                    21:75:0a:2d:58:e2:0a:3a:3d
                Exponent: 65537 (0x10001)
        X509v3 extensions:
            X509v3 Basic Constraints: 
                CA:FALSE
            Netscape Comment: 
                OpenSSL Generated Certificate
            X509v3 Subject Key Identifier: 
                7E:42:6C:12:CB:42:12:36:54:03:29:B6:D8:21:CA:E1:65:48:C5:67
            X509v3 Authority Key Identifier: 
                keyid:9E:54:3E:E5:2F:E5:EA:40:4A:FC:37:96:6C:45:BB:1A:79:0E:CA:AB

    Signature Algorithm: sha256WithRSAEncryption
         08:e1:a9:a0:e9:c4:1b:65:8d:b0:71:60:68:18:d8:af:49:8f:
         0b:41:62:bb:f8:23:71:65:f2:c7:cf:59:23:63:48:fa:ba:26:
         5f:2d:2e:4c:18:e4:f0:6e:cb:38:be:51:d0:e2:cc:76:ab:f6:
         13:c2:49:68:e2:ef:da:86:a9:3d:80:29:9f:ee:33:be:cd:4c:
         b2:4c:14:04:e3:46:46:46:ec:c1:4a:63:de:f3:5a:7b:0f:28:
         a1:92:c8:96:07:b3:73:96:f4:9e:a0:bf:36:ea:f1:1a:8b:f7:
         d5:ed:6c:e2:bf:cd:61:bc:a4:ca:ee:fa:75:af:ad:4c:54:4b:
         af:18
-----BEGIN CERTIFICATE-----
MIICzDCCAjWgAwIBAgIBATANBgkqhkiG9w0BAQsFADBlMQswCQYDVQQGEwJHQjET
MBEGA1UECAwKRGVyYnlzaGlyZTEaMBgGA1UECgwRTW9zcXVpdHRvIFByb2plY3Qx
EDAOBgNVBAsMB1Rlc3RpbmcxEzARBgNVBAMMClNpZ25pbmcgQ0EwHhcNMTgwMzAx
MTg1MzQ0WhcNMjMwMjI4MTg1MzQ0WjB2MQswCQYDVQQGEwJHQjEYMBYGA1UECAwP
Tm90dGluZ2hhbXNoaXJlMRMwEQYDVQQHDApOb3R0aW5naGFtMQ8wDQYDVQQKDAZT
ZXJ2ZXIxEzARBgNVBAsMClByb2R1Y3Rpb24xEjAQBgNVBAMMCWxvY2FsaG9zdDCB
nzANBgkqhkiG9w0BAQEFAAOBjQAwgYkCgYEAyRjhasRFWA63ZTq4b98K2F0YqkAI
1tV5+sp5a57OVYXJ1U+7f1qByDxdqu1/SIfC8UxiAMONmqPCdyXGcMzv0Y8XfRvD
q2Y+kPBE44WLd4Yhst0LLO2gFqAWY0m5u5BFRPH3Hq1XHEWiCJkTBeMTdu/zzfM6
IXMhdQotWOIKOj0CAwEAAaN7MHkwCQYDVR0TBAIwADAsBglghkgBhvhCAQ0EHxYd
T3BlblNTTCBHZW5lcmF0ZWQgQ2VydGlmaWNhdGUwHQYDVR0OBBYEFH5CbBLLQhI2
VAMpttghyuFlSMVnMB8GA1UdIwQYMBaAFJ5UPuUv5epASvw3lmxFuxp5DsqrMA0G
CSqGSIb3DQEBCwUAA4GBAAjhqaDpxBtljbBxYGgY2K9JjwtBYrv4I3Fl8sfPWSNj
SPq6Jl8tLkwY5PBuyzi+UdDizHar9hPCSWji79qGqT2AKZ/uM77NTLJMFATjRkZG
7MFKY97zWnsPKKGSyJYHs3OW9J6gvzbq8RqL99XtbOK/zWG8pMru+nWvrUxUS68Y
-----END CERTIFICATE-----
